((lp1
(dp2
S'Arrival'
p3
S'25.5'
p4
sS'Late'
p5
I0
sS'Depart'
p6
S'125.5'
p7
sS'POWER'
p8
S'77.1'
p9
sS'LANDING'
p10
S'30.5'
p11
sS'WATER'
p12
S'water'
p13
sS'BAGGAGE'
p14
S'48.7'
p15
sS'CATER'
p16
S'52.2'
p17
sS'CLEAN'
p18
S'52.2'
p19
sS'FUEL'
p20
S'56.4'
p21
sa(dp22
g3
S'40.1'
p23
sg5
I0
sg6
S'122.1'
p24
sg8
S'91.7'
p25
sg10
S'45.1'
p26
sg12
S'water'
p27
sg14
S'63.3'
p28
sg16
S'66.8'
p29
sg18
S'66.8'
p30
sg20
S'71.0'
p31
sa(dp32
g3
S'53.4'
p33
sg5
I0
sg6
S'118.4'
p34
sg8
S'116.7'
p35
sg10
S'58.4'
p36
sg12
S'water'
p37
sg14
S'76.6'
p38
sg16
S'80.1'
p39
sg18
S'80.1'
p40
sg20
S'84.3'
p41
sa(dp42
g3
S'80.0'
p43
sg5
S'15.0'
p44
sg6
S'201.9'
p45
sg8
S'201.9'
p46
sg10
S'85.0'
p47
sg12
S'water'
p48
sg14
S'131.9'
p49
sg16
S'114.0'
p50
sg18
S'128.0'
p51
sg20
S'127.0'
p52
sa(dp53
g3
S'91.9'
p54
sg5
S'12.8'
p55
sg6
S'182.7'
p56
sg8
S'182.7'
p57
sg10
S'96.9'
p58
sg12
S'water'
p59
sg14
S'127.9'
p60
sg16
S'121.9'
p61
sg18
S'121.9'
p62
sg20
S'127.9'
p63
sa(dp64
g3
S'130.9'
p65
sg5
S'6.4'
p66
sg6
S'222.3'
p67
sg8
S'222.3'
p68
sg10
S'135.9'
p69
sg12
S'water'
p70
sg14
S'154.1'
p71
sg16
S'157.6'
p72
sg18
S'157.6'
p73
sg20
S'161.8'
p74
sa(dp75
g3
S'140.7'
p76
sg5
S'2.8'
p77
sg6
S'241.5'
p78
sg8
S'241.5'
p79
sg10
S'145.7'
p80
sg12
S'water'
p81
sg14
S'163.9'
p82
sg16
S'167.4'
p83
sg18
S'167.4'
p84
sg20
S'171.6'
p85
sa(dp86
g3
S'180.6'
p87
sg5
S'18.3'
p88
sg6
S'261.9'
p89
sg8
S'261.9'
p90
sg10
S'185.6'
p91
sg12
S'water'
p92
sg14
S'203.8'
p93
sg16
S'207.3'
p94
sg18
S'207.3'
p95
sg20
S'211.5'
p96
sa(dp97
g3
S'202.8'
p98
sg5
S'36.8'
p99
sg6
S'307.5'
p100
sg8
S'307.5'
p101
sg10
S'207.8'
p102
sg12
S'water'
p103
sg14
S'238.8'
p104
sg16
S'232.8'
p105
sg18
S'232.8'
p106
sg20
S'238.8'
p107
sa(dp108
g3
S'230.3'
p109
sg5
S'18.3'
p110
sg6
S'367.5'
p111
sg8
S'367.5'
p112
sg10
S'235.3'
p113
sg12
S'water'
p114
sg14
S'266.3'
p115
sg16
S'260.3'
p116
sg18
S'260.3'
p117
sg20
S'266.3'
p118
sa(dp119
g3
S'249.5'
p120
sg5
I0
sg6
S'333.5'
p121
sg8
S'301.5'
p122
sg10
S'254.5'
p123
sg12
S'water'
p124
sg14
S'272.7'
p125
sg16
S'276.2'
p126
sg18
S'276.2'
p127
sg20
S'280.4'
p128
sa(dp129
g3
S'257.0'
p130
sg5
I0
sg6
S'352.0'
p131
sg8
S'347.1'
p132
sg10
S'262.0'
p133
sg12
S'water'
p134
sg14
S'280.2'
p135
sg16
S'283.7'
p136
sg18
S'283.7'
p137
sg20
S'287.9'
p138
sa(dp139
g3
S'306.3'
p140
sg5
S'5.4'
p141
sg6
S'386.8'
p142
sg8
S'386.8'
p143
sg10
S'311.3'
p144
sg12
S'water'
p145
sg14
S'329.5'
p146
sg16
S'333.0'
p147
sg18
S'333.0'
p148
sg20
S'337.2'
p149
sa(dp150
g3
S'367.3'
p151
sg5
I0
sg6
S'449.3'
p152
sg8
S'418.9'
p153
sg10
S'372.3'
p154
sg12
S'water'
p155
sg14
S'390.5'
p156
sg16
S'394.0'
p157
sg18
S'394.0'
p158
sg20
S'398.2'
p159
sa(dp160
g3
S'387.6'
p161
sg5
I0
sg6
S'484.6'
p162
sg8
S'439.2'
p163
sg10
S'392.6'
p164
sg12
S'water'
p165
sg14
S'410.8'
p166
sg16
S'414.3'
p167
sg18
S'414.3'
p168
sg20
S'418.5'
p169
sa(dp170
g3
S'388.7'
p171
sg5
I0
sg6
S'485.7'
p172
sg8
S'458.5'
p173
sg10
S'393.7'
p174
sg12
S'water'
p175
sg14
S'411.9'
p176
sg16
S'415.4'
p177
sg18
S'415.4'
p178
sg20
S'419.6'
p179
sa(dp180
g3
S'423.6'
p181
sg5
I0
sg6
S'528.6'
p182
sg8
S'478.8'
p183
sg10
S'428.6'
p184
sg12
S'water'
p185
sg14
S'446.8'
p186
sg16
S'450.3'
p187
sg18
S'450.3'
p188
sg20
S'454.5'
p189
sa(dp190
g3
S'433.6'
p191
sg5
I0
sg6
S'504.6'
p192
sg8
S'498.1'
p193
sg10
S'438.6'
p194
sg12
S'water'
p195
sg14
S'456.8'
p196
sg16
S'460.3'
p197
sg18
S'460.3'
p198
sg20
S'464.5'
p199
sa(dp200
g3
S'437.3'
p201
sg5
S'4.1'
p202
sg6
S'518.4'
p203
sg8
S'518.4'
p204
sg10
S'442.3'
p205
sg12
S'water'
p206
sg14
S'460.5'
p207
sg16
S'465.0'
p208
sg18
S'464.0'
p209
sg20
S'473.4'
p210
sa(dp211
g3
S'462.0'
p212
sg5
I0
sg6
S'556.0'
p213
sg8
S'537.7'
p214
sg10
S'467.0'
p215
sg12
S'water'
p216
sg14
S'485.2'
p217
sg16
S'488.7'
p218
sg18
S'488.7'
p219
sg20
S'492.9'
p220
sa(dp221
g3
S'524.2'
p222
sg5
I0
sg6
S'631.2'
p223
sg8
S'575.8'
p224
sg10
S'529.2'
p225
sg12
S'water'
p226
sg14
S'547.4'
p227
sg16
S'550.9'
p228
sg18
S'550.9'
p229
sg20
S'555.1'
p230
sa(dp231
g3
S'556.3'
p232
sg5
I0
sg6
S'662.3'
p233
sg8
S'607.9'
p234
sg10
S'561.3'
p235
sg12
S'water'
p236
sg14
S'579.5'
p237
sg16
S'583.0'
p238
sg18
S'583.0'
p239
sg20
S'587.2'
p240
sa(dp241
g3
S'572.3'
p242
sg5
I0
sg6
S'632.3'
p243
sg8
S'623.9'
p244
sg10
S'577.3'
p245
sg12
S'water'
p246
sg14
S'595.5'
p247
sg16
S'599.0'
p248
sg18
S'599.0'
p249
sg20
S'603.2'
p250
sa(dp251
g3
S'620.6'
p252
sg5
S'12.0'
p253
sg6
S'742.6'
p254
sg8
S'742.6'
p255
sg10
S'625.6'
p256
sg12
S'water'
p257
sg14
S'672.6'
p258
sg16
S'654.6'
p259
sg18
S'668.6'
p260
sg20
S'667.6'
p261
sa(dp262
g3
S'689.5'
p263
sg5
S'37.0'
p264
sg6
S'811.5'
p265
sg8
S'811.5'
p266
sg10
S'694.5'
p267
sg12
S'water'
p268
sg14
S'741.5'
p269
sg16
S'723.5'
p270
sg18
S'737.5'
p271
sg20
S'736.5'
p272
sa(dp273
g3
S'695.5'
p274
sg5
I0
sg6
S'782.5'
p275
sg8
S'782.2'
p276
sg10
S'700.5'
p277
sg12
S'water'
p278
sg14
S'718.7'
p279
sg16
S'722.2'
p280
sg18
S'722.2'
p281
sg20
S'726.4'
p282
sa(dp283
g3
S'719.2'
p284
sg5
S'13.6'
p285
sg6
S'821.8'
p286
sg8
S'821.8'
p287
sg10
S'724.2'
p288
sg12
S'water'
p289
sg14
S'742.4'
p290
sg16
S'745.9'
p291
sg18
S'745.9'
p292
sg20
S'750.1'
p293
sa(dp294
g3
S'743.0'
p295
sg5
S'25.0'
p296
sg6
S'851.1'
p297
sg8
S'851.1'
p298
sg10
S'748.0'
p299
sg12
S'water'
p300
sg14
S'766.2'
p301
sg16
S'769.7'
p302
sg18
S'769.7'
p303
sg20
S'773.9'
p304
sa(dp305
g3
S'807.5'
p306
sg5
I0
sg6
S'894.5'
p307
sg8
S'861.4'
p308
sg10
S'812.5'
p309
sg12
S'water'
p310
sg14
S'830.7'
p311
sg16
S'834.2'
p312
sg18
S'834.2'
p313
sg20
S'838.4'
p314
sa(dp315
g3
S'815.6'
p316
sg5
I0
sg6
S'918.6'
p317
sg8
S'890.7'
p318
sg10
S'820.6'
p319
sg12
S'water'
p320
sg14
S'838.8'
p321
sg16
S'842.3'
p322
sg18
S'842.3'
p323
sg20
S'846.5'
p324
sa(dp325
g3
S'876.8'
p326
sg5
I0
sg6
S'955.8'
p327
sg8
S'928.4'
p328
sg10
S'881.8'
p329
sg12
S'water'
p330
sg14
S'900.0'
p331
sg16
S'903.5'
p332
sg18
S'903.5'
p333
sg20
S'907.7'
p334
sa(dp335
g3
S'879.3'
p336
sg5
I0
sg6
S'948.3'
p337
sg8
S'930.9'
p338
sg10
S'884.3'
p339
sg12
S'water'
p340
sg14
S'902.5'
p341
sg16
S'906.0'
p342
sg18
S'906.0'
p343
sg20
S'910.2'
p344
sa(dp345
g3
S'915.5'
p346
sg5
I0
sg6
S'995.5'
p347
sg8
S'968.0'
p348
sg10
S'920.5'
p349
sg12
S'water'
p350
sg14
S'938.7'
p351
sg16
S'942.2'
p352
sg18
S'942.2'
p353
sg20
S'946.4'
p354
sa(dp355
g3
S'950.0'
p356
sg5
S'6.0'
p357
sg6
S'1072.0'
p358
sg8
S'1072.0'
p359
sg10
S'955.0'
p360
sg12
S'water'
p361
sg14
S'1002.0'
p362
sg16
S'984.0'
p363
sg18
S'998.0'
p364
sg20
S'997.0'
p365
sa(dp366
g3
S'963.6'
p367
sg5
I0
sg6
S'1057.6'
p368
sg8
S'1015.2'
p369
sg10
S'968.6'
p370
sg12
S'water'
p371
sg14
S'986.8'
p372
sg16
S'990.3'
p373
sg18
S'990.3'
p374
sg20
S'994.5'
p375
sa(dp376
g3
S'989.2'
p377
sg5
S'18.2'
p378
sg6
S'1094.4'
p379
sg8
S'1094.4'
p380
sg10
S'994.2'
p381
sg12
S'water'
p382
sg14
S'1012.4'
p383
sg16
S'1015.9'
p384
sg18
S'1015.9'
p385
sg20
S'1020.1'
p386
sa(dp387
g3
S'999.7'
p388
sg5
I0
sg6
S'1066.7'
p389
sg8
S'1054.8'
p390
sg10
S'1004.7'
p391
sg12
S'water'
p392
sg14
S'1022.9'
p393
sg16
S'1026.4'
p394
sg18
S'1026.4'
p395
sg20
S'1030.6'
p396
sa(dp397
g3
S'1003.2'
p398
sg5
S'33.4'
p399
sg6
S'1111.6'
p400
sg8
S'1111.6'
p401
sg10
S'1008.2'
p402
sg12
S'water'
p403
sg14
S'1026.4'
p404
sg16
S'1030.6'
p405
sg18
S'1029.9'
p406
sg20
S'1039.0'
p407
sa(dp408
g3
S'1059.6'
p409
sg5
I0
sg6
S'1172.6'
p410
sg8
S'1151.2'
p411
sg10
S'1064.6'
p412
sg12
S'water'
p413
sg14
S'1082.8'
p414
sg16
S'1086.3'
p415
sg18
S'1086.3'
p416
sg20
S'1090.5'
p417
sa(dp418
g3
S'1071.5'
p419
sg5
I0
sg6
S'1147.5'
p420
sg8
S'1134.0'
p421
sg10
S'1076.5'
p422
sg12
S'water'
p423
sg14
S'1094.7'
p424
sg16
S'1098.2'
p425
sg18
S'1098.2'
p426
sg20
S'1102.4'
p427
saF16.568749999999998
F94.499999999999972
t.