((lp1
(dp2
S'Arrival'
p3
S'3.9'
p4
sS'Late'
p5
I0
sS'Depart'
p6
S'122.9'
p7
sS'POWER'
p8
S'55.5'
p9
sS'LANDING'
p10
S'8.9'
p11
sS'WATER'
p12
S'water'
p13
sS'BAGGAGE'
p14
S'27.1'
p15
sS'CATER'
p16
S'30.6'
p17
sS'CLEAN'
p18
S'30.6'
p19
sS'FUEL'
p20
S'34.8'
p21
sa(dp22
g3
S'5.8'
p23
sg5
I0
sg6
S'97.8'
p24
sg8
S'57.4'
p25
sg10
S'10.8'
p26
sg12
S'water'
p27
sg14
S'29.0'
p28
sg16
S'32.5'
p29
sg18
S'32.5'
p30
sg20
S'36.7'
p31
sa(dp32
g3
S'13.4'
p33
sg5
S'18.7'
p34
sg6
S'95.1'
p35
sg8
S'95.1'
p36
sg10
S'18.4'
p37
sg12
S'water'
p38
sg14
S'38.3'
p39
sg16
S'45.3'
p40
sg18
S'40.1'
p41
sg20
S'53.7'
p42
sa(dp43
g3
S'16.9'
p44
sg5
I0
sg6
S'128.0'
p45
sg8
S'97.0'
p46
sg10
S'21.9'
p47
sg12
S'water'
p48
sg14
S'40.2'
p49
sg16
S'47.2'
p50
sg18
S'43.7'
p51
sg20
S'55.6'
p52
sa(dp53
g3
S'68.9'
p54
sg5
I0
sg6
S'177.9'
p55
sg8
S'134.7'
p56
sg10
S'73.9'
p57
sg12
S'water'
p58
sg14
S'92.1'
p59
sg16
S'95.6'
p60
sg18
S'95.6'
p61
sg20
S'99.8'
p62
sa(dp63
g3
S'78.8'
p64
sg5
I0
sg6
S'180.8'
p65
sg8
S'163.0'
p66
sg10
S'83.8'
p67
sg12
S'water'
p68
sg14
S'114.8'
p69
sg16
S'108.8'
p70
sg18
S'108.8'
p71
sg20
S'114.8'
p72
sa(dp73
g3
S'143.7'
p74
sg5
I0
sg6
S'225.7'
p75
sg8
S'195.3'
p76
sg10
S'148.7'
p77
sg12
S'water'
p78
sg14
S'166.9'
p79
sg16
S'170.4'
p80
sg18
S'170.4'
p81
sg20
S'174.6'
p82
sa(dp83
g3
S'157.5'
p84
sg5
I0
sg6
S'276.5'
p85
sg8
S'209.1'
p86
sg10
S'162.5'
p87
sg12
S'water'
p88
sg14
S'180.7'
p89
sg16
S'184.2'
p90
sg18
S'184.2'
p91
sg20
S'188.4'
p92
sa(dp93
g3
S'169.0'
p94
sg5
S'54.3'
p95
sg6
S'305.3'
p96
sg8
S'305.3'
p97
sg10
S'174.0'
p98
sg12
S'water'
p99
sg14
S'221.0'
p100
sg16
S'203.0'
p101
sg18
S'217.0'
p102
sg20
S'216.0'
p103
sa(dp104
g3
S'230.1'
p105
sg5
I0
sg6
S'327.1'
p106
sg8
S'281.7'
p107
sg10
S'235.1'
p108
sg12
S'water'
p109
sg14
S'253.3'
p110
sg16
S'256.8'
p111
sg18
S'256.8'
p112
sg20
S'261.0'
p113
sa(dp114
g3
S'249.9'
p115
sg5
I0
sg6
S'338.9'
p116
sg8
S'321.3'
p117
sg10
S'254.9'
p118
sg12
S'water'
p119
sg14
S'273.1'
p120
sg16
S'276.6'
p121
sg18
S'276.6'
p122
sg20
S'280.8'
p123
sa(dp124
g3
S'261.0'
p125
sg5
I0
sg6
S'375.0'
p126
sg8
S'344.9'
p127
sg10
S'266.0'
p128
sg12
S'water'
p129
sg14
S'284.2'
p130
sg16
S'287.7'
p131
sg18
S'287.7'
p132
sg20
S'291.9'
p133
sa(dp134
g3
S'321.5'
p135
sg5
I0
sg6
S'412.5'
p136
sg8
S'373.1'
p137
sg10
S'326.5'
p138
sg12
S'water'
p139
sg14
S'344.7'
p140
sg16
S'348.2'
p141
sg18
S'348.2'
p142
sg20
S'352.4'
p143
sa(dp144
g3
S'375.4'
p145
sg5
I0
sg6
S'466.4'
p146
sg8
S'427.0'
p147
sg10
S'380.4'
p148
sg12
S'water'
p149
sg14
S'398.6'
p150
sg16
S'402.1'
p151
sg18
S'402.1'
p152
sg20
S'406.3'
p153
sa(dp154
g3
S'401.8'
p155
sg5
I0
sg6
S'518.8'
p156
sg8
S'453.4'
p157
sg10
S'406.8'
p158
sg12
S'water'
p159
sg14
S'425.0'
p160
sg16
S'428.5'
p161
sg18
S'428.5'
p162
sg20
S'432.7'
p163
sa(dp164
g3
S'409.0'
p165
sg5
I0
sg6
S'497.0'
p166
sg8
S'466.6'
p167
sg10
S'414.0'
p168
sg12
S'water'
p169
sg14
S'432.2'
p170
sg16
S'435.7'
p171
sg18
S'435.7'
p172
sg20
S'439.9'
p173
sa(dp174
g3
S'420.6'
p175
sg5
S'21.7'
p176
sg6
S'519.4'
p177
sg8
S'519.4'
p178
sg10
S'425.6'
p179
sg12
S'water'
p180
sg14
S'456.6'
p181
sg16
S'450.6'
p182
sg18
S'450.6'
p183
sg20
S'456.7'
p184
sa(dp185
g3
S'518.5'
p186
sg5
I0
sg6
S'604.5'
p187
sg8
S'570.1'
p188
sg10
S'523.5'
p189
sg12
S'water'
p190
sg14
S'541.7'
p191
sg16
S'545.2'
p192
sg18
S'545.2'
p193
sg20
S'549.4'
p194
sa(dp195
g3
S'532.6'
p196
sg5
I0
sg6
S'622.6'
p197
sg8
S'584.2'
p198
sg10
S'537.6'
p199
sg12
S'water'
p200
sg14
S'555.8'
p201
sg16
S'559.3'
p202
sg18
S'559.3'
p203
sg20
S'563.5'
p204
sa(dp205
g3
S'544.4'
p206
sg5
I0
sg6
S'622.4'
p207
sg8
S'609.7'
p208
sg10
S'549.4'
p209
sg12
S'water'
p210
sg14
S'567.6'
p211
sg16
S'571.1'
p212
sg18
S'571.1'
p213
sg20
S'575.3'
p214
sa(dp215
g3
S'548.0'
p216
sg5
I0
sg6
S'657.0'
p217
sg8
S'649.3'
p218
sg10
S'553.0'
p219
sg12
S'water'
p220
sg14
S'571.2'
p221
sg16
S'574.8'
p222
sg18
S'574.8'
p223
sg20
S'582.4'
p224
sa(dp225
g3
S'567.7'
p226
sg5
I0
sg6
S'643.7'
p227
sg8
S'623.8'
p228
sg10
S'572.7'
p229
sg12
S'water'
p230
sg14
S'590.9'
p231
sg16
S'594.4'
p232
sg18
S'594.4'
p233
sg20
S'598.6'
p234
sa(dp235
g3
S'604.3'
p236
sg5
I0
sg6
S'675.3'
p237
sg8
S'663.4'
p238
sg10
S'609.3'
p239
sg12
S'water'
p240
sg14
S'627.5'
p241
sg16
S'631.0'
p242
sg18
S'631.0'
p243
sg20
S'635.2'
p244
sa(dp245
g3
S'619.0'
p246
sg5
I0
sg6
S'722.0'
p247
sg8
S'688.9'
p248
sg10
S'624.0'
p249
sg12
S'water'
p250
sg14
S'642.2'
p251
sg16
S'645.8'
p252
sg18
S'645.8'
p253
sg20
S'649.9'
p254
sa(dp255
g3
S'640.4'
p256
sg5
I0
sg6
S'736.4'
p257
sg8
S'703.0'
p258
sg10
S'645.4'
p259
sg12
S'water'
p260
sg14
S'663.6'
p261
sg16
S'667.1'
p262
sg18
S'667.1'
p263
sg20
S'671.2'
p264
sa(dp265
g3
S'674.7'
p266
sg5
I0
sg6
S'785.7'
p267
sg8
S'728.5'
p268
sg10
S'679.7'
p269
sg12
S'water'
p270
sg14
S'697.9'
p271
sg16
S'701.4'
p272
sg18
S'701.4'
p273
sg20
S'705.6'
p274
sa(dp275
g3
S'707.4'
p276
sg5
I0
sg6
S'769.4'
p277
sg8
S'759.0'
p278
sg10
S'712.4'
p279
sg12
S'water'
p280
sg14
S'730.6'
p281
sg16
S'734.1'
p282
sg18
S'734.1'
p283
sg20
S'738.3'
p284
sa(dp285
g3
S'708.9'
p286
sg5
I0
sg6
S'781.9'
p287
sg8
S'768.1'
p288
sg10
S'713.9'
p289
sg12
S'water'
p290
sg14
S'732.1'
p291
sg16
S'735.6'
p292
sg18
S'735.6'
p293
sg20
S'739.8'
p294
sa(dp295
g3
S'756.7'
p296
sg5
I0
sg6
S'847.7'
p297
sg8
S'808.3'
p298
sg10
S'761.7'
p299
sg12
S'water'
p300
sg14
S'779.9'
p301
sg16
S'783.4'
p302
sg18
S'783.4'
p303
sg20
S'787.6'
p304
sa(dp305
g3
S'787.4'
p306
sg5
I0
sg6
S'877.4'
p307
sg8
S'839.0'
p308
sg10
S'792.4'
p309
sg12
S'water'
p310
sg14
S'810.6'
p311
sg16
S'814.1'
p312
sg18
S'814.1'
p313
sg20
S'818.3'
p314
sa(dp315
g3
S'852.8'
p316
sg5
I0
sg6
S'967.8'
p317
sg8
S'904.4'
p318
sg10
S'857.8'
p319
sg12
S'water'
p320
sg14
S'876.0'
p321
sg16
S'879.5'
p322
sg18
S'879.5'
p323
sg20
S'883.7'
p324
sa(dp325
g3
S'860.5'
p326
sg5
I0
sg6
S'935.5'
p327
sg8
S'912.1'
p328
sg10
S'865.5'
p329
sg12
S'water'
p330
sg14
S'883.7'
p331
sg16
S'887.2'
p332
sg18
S'887.2'
p333
sg20
S'891.4'
p334
sa(dp335
g3
S'871.7'
p336
sg5
S'7.3'
p337
sg6
S'944.0'
p338
sg8
S'944.0'
p339
sg10
S'876.7'
p340
sg12
S'water'
p341
sg14
S'894.9'
p342
sg16
S'898.4'
p343
sg18
S'898.4'
p344
sg20
S'902.6'
p345
sa(dp346
g3
S'884.2'
p347
sg5
S'7.5'
p348
sg6
S'951.7'
p349
sg8
S'951.7'
p350
sg10
S'889.2'
p351
sg12
S'water'
p352
sg14
S'907.4'
p353
sg16
S'910.9'
p354
sg18
S'910.9'
p355
sg20
S'915.1'
p356
sa(dp357
g3
S'904.5'
p358
sg5
I0
sg6
S'1021.5'
p359
sg8
S'983.6'
p360
sg10
S'909.5'
p361
sg12
S'water'
p362
sg14
S'927.7'
p363
sg16
S'931.2'
p364
sg18
S'931.2'
p365
sg20
S'935.4'
p366
sa(dp367
g3
S'952.2'
p368
sg5
I0
sg6
S'1053.2'
p369
sg8
S'1003.8'
p370
sg10
S'957.2'
p371
sg12
S'water'
p372
sg14
S'975.4'
p373
sg16
S'978.9'
p374
sg18
S'978.9'
p375
sg20
S'983.1'
p376
sa(dp377
g3
S'1014.2'
p378
sg5
I0
sg6
S'1092.2'
p379
sg8
S'1065.8'
p380
sg10
S'1019.2'
p381
sg12
S'water'
p382
sg14
S'1037.4'
p383
sg16
S'1040.9'
p384
sg18
S'1040.9'
p385
sg20
S'1045.1'
p386
sa(dp387
g3
S'1030.8'
p388
sg5
I0
sg6
S'1106.8'
p389
sg8
S'1082.4'
p390
sg10
S'1035.8'
p391
sg12
S'water'
p392
sg14
S'1054.0'
p393
sg16
S'1057.5'
p394
sg18
S'1057.5'
p395
sg20
S'1061.7'
p396
sa(dp397
g3
S'1033.2'
p398
sg5
I0
sg6
S'1147.2'
p399
sg8
S'1122.0'
p400
sg10
S'1038.2'
p401
sg12
S'water'
p402
sg14
S'1056.5'
p403
sg16
S'1060.0'
p404
sg18
S'1060.0'
p405
sg20
S'1064.2'
p406
sa(dp407
g3
S'1036.4'
p408
sg5
I0
sg6
S'1134.4'
p409
sg8
S'1105.4'
p410
sg10
S'1041.4'
p411
sg12
S'water'
p412
sg14
S'1065.2'
p413
sg16
S'1072.2'
p414
sg18
S'1064.5'
p415
sg20
S'1080.6'
p416
saF21.899999999999999
F94.692499999999995
t.