((lp1
(dp2
S'Arrival'
p3
S'45.5'
p4
sS'Late'
p5
I0
sS'Depart'
p6
S'163.5'
p7
sS'POWER'
p8
S'97.1'
p9
sS'LANDING'
p10
S'50.5'
p11
sS'WATER'
p12
S'water'
p13
sS'BAGGAGE'
p14
S'68.7'
p15
sS'CATER'
p16
S'72.2'
p17
sS'CLEAN'
p18
S'72.2'
p19
sS'FUEL'
p20
S'76.4'
p21
sa(dp22
g3
S'46.9'
p23
sg5
I0
sg6
S'119.9'
p24
sg8
S'98.5'
p25
sg10
S'51.9'
p26
sg12
S'water'
p27
sg14
S'70.1'
p28
sg16
S'73.6'
p29
sg18
S'73.6'
p30
sg20
S'77.8'
p31
sa(dp32
g3
S'63.2'
p33
sg5
I0
sg6
S'156.2'
p34
sg8
S'138.1'
p35
sg10
S'68.2'
p36
sg12
S'water'
p37
sg14
S'86.4'
p38
sg16
S'89.9'
p39
sg18
S'89.9'
p40
sg20
S'95.3'
p41
sa(dp42
g3
S'66.0'
p43
sg5
I0
sg6
S'148.0'
p44
sg8
S'136.7'
p45
sg10
S'71.0'
p46
sg12
S'water'
p47
sg14
S'89.2'
p48
sg16
S'92.7'
p49
sg18
S'92.7'
p50
sg20
S'96.9'
p51
sa(dp52
g3
S'77.1'
p53
sg5
S'29.1'
p54
sg6
S'217.3'
p55
sg8
S'217.3'
p56
sg10
S'82.1'
p57
sg12
S'water'
p58
sg14
S'100.3'
p59
sg16
S'122.1'
p60
sg18
S'103.8'
p61
sg20
S'134.7'
p62
sa(dp63
g3
S'77.9'
p64
sg5
S'36.1'
p65
sg6
S'215.9'
p66
sg8
S'215.9'
p67
sg10
S'82.9'
p68
sg12
S'water'
p69
sg14
S'101.1'
p70
sg16
S'104.6'
p71
sg18
S'104.6'
p72
sg20
S'133.1'
p73
sa(dp74
g3
S'79.8'
p75
sg5
S'10.9'
p76
sg6
S'177.7'
p77
sg8
S'177.7'
p78
sg10
S'84.8'
p79
sg12
S'water'
p80
sg14
S'112.3'
p81
sg16
S'107.4'
p82
sg18
S'110.8'
p83
sg20
S'114.2'
p84
sa(dp85
g3
S'84.8'
p86
sg5
S'12.5'
p87
sg6
S'176.3'
p88
sg8
S'176.3'
p89
sg10
S'89.8'
p90
sg12
S'water'
p91
sg14
S'111.5'
p92
sg16
S'119.3'
p93
sg18
S'111.6'
p94
sg20
S'115.8'
p95
sa(dp96
g3
S'108.3'
p97
sg5
S'41.5'
p98
sg6
S'256.9'
p99
sg8
S'256.9'
p100
sg10
S'113.3'
p101
sg12
S'water'
p102
sg14
S'131.5'
p103
sg16
S'135.0'
p104
sg18
S'135.0'
p105
sg20
S'152.0'
p106
sa(dp107
g3
S'129.5'
p108
sg5
S'57.0'
p109
sg6
S'255.5'
p110
sg8
S'255.5'
p111
sg10
S'134.5'
p112
sg12
S'water'
p113
sg14
S'152.7'
p114
sg16
S'156.2'
p115
sg18
S'156.2'
p116
sg20
S'160.4'
p117
sa(dp118
g3
S'158.3'
p119
sg5
S'41.8'
p120
sg6
S'295.1'
p121
sg8
S'295.1'
p122
sg10
S'163.3'
p123
sg12
S'water'
p124
sg14
S'181.5'
p125
sg16
S'185.0'
p126
sg18
S'185.0'
p127
sg20
S'189.2'
p128
sa(dp129
g3
S'172.9'
p130
sg5
S'62.0'
p131
sg6
S'322.9'
p132
sg8
S'322.9'
p133
sg10
S'177.9'
p134
sg12
S'water'
p135
sg14
S'208.9'
p136
sg16
S'202.9'
p137
sg18
S'202.9'
p138
sg20
S'208.9'
p139
sa(dp140
g3
S'187.9'
p141
sg5
S'52.8'
p142
sg6
S'334.7'
p143
sg8
S'334.7'
p144
sg10
S'192.9'
p145
sg12
S'water'
p146
sg14
S'211.1'
p147
sg16
S'214.6'
p148
sg18
S'214.6'
p149
sg20
S'218.8'
p150
sa(dp151
g3
S'233.6'
p152
sg5
S'37.9'
p153
sg6
S'362.5'
p154
sg8
S'362.5'
p155
sg10
S'238.6'
p156
sg12
S'water'
p157
sg14
S'256.8'
p158
sg16
S'260.2'
p159
sg18
S'260.2'
p160
sg20
S'264.4'
p161
sa(dp162
g3
S'271.0'
p163
sg5
S'12.3'
p164
sg6
S'374.3'
p165
sg8
S'374.3'
p166
sg10
S'276.0'
p167
sg12
S'water'
p168
sg14
S'294.2'
p169
sg16
S'297.7'
p170
sg18
S'297.7'
p171
sg20
S'301.9'
p172
sa(dp173
g3
S'286.2'
p174
sg5
S'86.3'
p175
sg6
S'472.5'
p176
sg8
S'472.5'
p177
sg10
S'291.2'
p178
sg12
S'water'
p179
sg14
S'338.2'
p180
sg16
S'320.2'
p181
sg18
S'334.2'
p182
sg20
S'333.2'
p183
sa(dp184
g3
S'337.2'
p185
sg5
I0
sg6
S'435.2'
p186
sg8
S'413.9'
p187
sg10
S'342.2'
p188
sg12
S'water'
p189
sg14
S'360.4'
p190
sg16
S'363.9'
p191
sg18
S'363.9'
p192
sg20
S'368.1'
p193
sa(dp194
g3
S'376.7'
p195
sg5
I0
sg6
S'456.7'
p196
sg8
S'453.5'
p197
sg10
S'381.7'
p198
sg12
S'water'
p199
sg14
S'399.9'
p200
sg16
S'403.4'
p201
sg18
S'403.4'
p202
sg20
S'407.6'
p203
sa(dp204
g3
S'409.8'
p205
sg5
S'86.8'
p206
sg6
S'563.5'
p207
sg8
S'563.5'
p208
sg10
S'414.8'
p209
sg12
S'water'
p210
sg14
S'461.8'
p211
sg16
S'443.8'
p212
sg18
S'457.8'
p213
sg20
S'456.8'
p214
sa(dp215
g3
S'424.2'
p216
sg5
S'11.5'
p217
sg6
S'551.7'
p218
sg8
S'551.7'
p219
sg10
S'429.2'
p220
sg12
S'water'
p221
sg14
S'447.4'
p222
sg16
S'450.9'
p223
sg18
S'450.9'
p224
sg20
S'455.1'
p225
sa(dp226
g3
S'444.3'
p227
sg5
S'4.8'
p228
sg6
S'512.1'
p229
sg8
S'512.1'
p230
sg10
S'449.3'
p231
sg12
S'water'
p232
sg14
S'467.5'
p233
sg16
S'471.0'
p234
sg18
S'471.0'
p235
sg20
S'475.2'
p236
sa(dp237
g3
S'445.9'
p238
sg5
S'44.4'
p239
sg6
S'591.3'
p240
sg8
S'591.3'
p241
sg10
S'450.9'
p242
sg12
S'water'
p243
sg14
S'472.9'
p244
sg16
S'472.6'
p245
sg18
S'472.6'
p246
sg20
S'476.8'
p247
sa(dp248
g3
S'498.2'
p249
sg5
S'66.4'
p250
sg6
S'629.5'
p251
sg8
S'629.5'
p252
sg10
S'503.2'
p253
sg12
S'water'
p254
sg14
S'534.2'
p255
sg16
S'528.2'
p256
sg18
S'528.2'
p257
sg20
S'534.2'
p258
sa(dp259
g3
S'510.6'
p260
sg5
S'31.3'
p261
sg6
S'630.9'
p262
sg8
S'630.9'
p263
sg10
S'515.5'
p264
sg12
S'water'
p265
sg14
S'533.8'
p266
sg16
S'537.2'
p267
sg18
S'537.2'
p268
sg20
S'541.4'
p269
sa(dp270
g3
S'544.4'
p271
sg5
S'16.8'
p272
sg6
S'669.1'
p273
sg8
S'669.1'
p274
sg10
S'549.4'
p275
sg12
S'water'
p276
sg14
S'567.6'
p277
sg16
S'571.1'
p278
sg18
S'571.1'
p279
sg20
S'575.2'
p280
sa(dp281
g3
S'614.0'
p282
sg5
I0
sg6
S'707.0'
p283
sg8
S'670.5'
p284
sg10
S'619.0'
p285
sg12
S'water'
p286
sg14
S'637.2'
p287
sg16
S'640.7'
p288
sg18
S'640.7'
p289
sg20
S'644.9'
p290
sa(dp291
g3
S'632.1'
p292
sg5
I0
sg6
S'731.1'
p293
sg8
S'708.7'
p294
sg10
S'637.1'
p295
sg12
S'water'
p296
sg14
S'655.3'
p297
sg16
S'658.8'
p298
sg18
S'658.8'
p299
sg20
S'663.0'
p300
sa(dp301
g3
S'695.8'
p302
sg5
I0
sg6
S'806.8'
p303
sg8
S'747.4'
p304
sg10
S'700.8'
p305
sg12
S'water'
p306
sg14
S'719.0'
p307
sg16
S'722.5'
p308
sg18
S'722.5'
p309
sg20
S'726.7'
p310
sa(dp311
g3
S'719.0'
p312
sg5
S'6.0'
p313
sg6
S'797.0'
p314
sg8
S'797.0'
p315
sg10
S'724.0'
p316
sg12
S'water'
p317
sg14
S'755.0'
p318
sg16
S'749.0'
p319
sg18
S'749.0'
p320
sg20
S'755.0'
p321
sa(dp322
g3
S'800.6'
p323
sg5
I0
sg6
S'861.6'
p324
sg8
S'852.2'
p325
sg10
S'805.6'
p326
sg12
S'water'
p327
sg14
S'823.8'
p328
sg16
S'827.3'
p329
sg18
S'827.3'
p330
sg20
S'831.5'
p331
sa(dp332
g3
S'840.6'
p333
sg5
I0
sg6
S'957.6'
p334
sg8
S'918.6'
p335
sg10
S'845.6'
p336
sg12
S'water'
p337
sg14
S'876.6'
p338
sg16
S'870.6'
p339
sg18
S'870.6'
p340
sg20
S'876.6'
p341
sa(dp342
g3
S'874.7'
p343
sg5
I0
sg6
S'962.7'
p344
sg8
S'926.3'
p345
sg10
S'879.7'
p346
sg12
S'water'
p347
sg14
S'897.9'
p348
sg16
S'901.4'
p349
sg18
S'901.4'
p350
sg20
S'905.6'
p351
sa(dp352
g3
S'878.0'
p353
sg5
I0
sg6
S'988.0'
p354
sg8
S'958.2'
p355
sg10
S'883.0'
p356
sg12
S'water'
p357
sg14
S'901.2'
p358
sg16
S'904.7'
p359
sg18
S'904.7'
p360
sg20
S'908.9'
p361
sa(dp362
g3
S'905.3'
p363
sg5
I0
sg6
S'1008.3'
p364
sg8
S'992.3'
p365
sg10
S'910.3'
p366
sg12
S'water'
p367
sg14
S'941.3'
p368
sg16
S'935.3'
p369
sg18
S'935.3'
p370
sg20
S'941.3'
p371
sa(dp372
g3
S'912.6'
p373
sg5
S'46.7'
p374
sg6
S'1068.2'
p375
sg8
S'1068.2'
p376
sg10
S'917.6'
p377
sg12
S'water'
p378
sg14
S'964.6'
p379
sg16
S'946.6'
p380
sg18
S'960.6'
p381
sg20
S'959.6'
p382
sa(dp383
g3
S'955.5'
p384
sg5
I0
sg6
S'1063.5'
p385
sg8
S'1031.9'
p386
sg10
S'960.5'
p387
sg12
S'water'
p388
sg14
S'978.7'
p389
sg16
S'982.2'
p390
sg18
S'982.2'
p391
sg20
S'986.4'
p392
sa(dp393
g3
S'997.2'
p394
sg5
I0
sg6
S'1111.2'
p395
sg8
S'1071.5'
p396
sg10
S'1002.2'
p397
sg12
S'water'
p398
sg14
S'1020.4'
p399
sg16
S'1023.9'
p400
sg18
S'1023.9'
p401
sg20
S'1028.1'
p402
sa(dp403
g3
S'1023.6'
p404
sg5
I0
sg6
S'1113.6'
p405
sg8
S'1107.8'
p406
sg10
S'1028.6'
p407
sg12
S'water'
p408
sg14
S'1046.8'
p409
sg16
S'1050.3'
p410
sg18
S'1050.3'
p411
sg20
S'1054.5'
p412
sa(dp413
g3
S'1044.9'
p414
sg5
I0
sg6
S'1151.9'
p415
sg8
S'1111.1'
p416
sg10
S'1049.9'
p417
sg12
S'water'
p418
sg14
S'1068.1'
p419
sg16
S'1071.6'
p420
sg18
S'1071.6'
p421
sg20
S'1075.8'
p422
sa(dp423
g3
S'1070.6'
p424
sg5
I0
sg6
S'1152.6'
p425
sg8
S'1147.4'
p426
sg10
S'1075.6'
p427
sg12
S'water'
p428
sg14
S'1093.8'
p429
sg16
S'1097.3'
p430
sg18
S'1097.3'
p431
sg20
S'1101.5'
p432
saF37.852380952380948
F113.14000000000001
t.