((lp1
(dp2
S'Arrival'
p3
S'15.8'
p4
sS'Late'
p5
I0
sS'Depart'
p6
S'78.8'
p7
sS'POWER'
p8
S'67.4'
p9
sS'LANDING'
p10
S'20.8'
p11
sS'WATER'
p12
S'water'
p13
sS'BAGGAGE'
p14
S'39.0'
p15
sS'CATER'
p16
S'42.5'
p17
sS'CLEAN'
p18
S'42.5'
p19
sS'FUEL'
p20
S'46.7'
p21
sa(dp22
g3
S'32.1'
p23
sg5
I0
sg6
S'148.1'
p24
sg8
S'83.7'
p25
sg10
S'37.1'
p26
sg12
S'water'
p27
sg14
S'55.3'
p28
sg16
S'58.8'
p29
sg18
S'58.8'
p30
sg20
S'63.0'
p31
sa(dp32
g3
S'90.0'
p33
sg5
I0
sg6
S'188.0'
p34
sg8
S'141.6'
p35
sg10
S'95.0'
p36
sg12
S'water'
p37
sg14
S'113.2'
p38
sg16
S'116.7'
p39
sg18
S'116.7'
p40
sg20
S'120.9'
p41
sa(dp42
g3
S'157.7'
p43
sg5
I0
sg6
S'234.7'
p44
sg8
S'209.3'
p45
sg10
S'162.7'
p46
sg12
S'water'
p47
sg14
S'180.9'
p48
sg16
S'184.4'
p49
sg18
S'184.4'
p50
sg20
S'188.6'
p51
sa(dp52
g3
S'218.6'
p53
sg5
I0
sg6
S'313.6'
p54
sg8
S'270.2'
p55
sg10
S'223.6'
p56
sg12
S'water'
p57
sg14
S'241.8'
p58
sg16
S'245.2'
p59
sg18
S'245.2'
p60
sg20
S'249.5'
p61
sa(dp62
g3
S'230.5'
p63
sg5
I0
sg6
S'292.5'
p64
sg8
S'282.1'
p65
sg10
S'235.5'
p66
sg12
S'water'
p67
sg14
S'253.7'
p68
sg16
S'257.2'
p69
sg18
S'257.2'
p70
sg20
S'261.4'
p71
sa(dp72
g3
S'275.4'
p73
sg5
I0
sg6
S'336.4'
p74
sg8
S'327.0'
p75
sg10
S'280.4'
p76
sg12
S'water'
p77
sg14
S'298.6'
p78
sg16
S'302.1'
p79
sg18
S'302.1'
p80
sg20
S'306.3'
p81
sa(dp82
g3
S'309.4'
p83
sg5
I0
sg6
S'428.4'
p84
sg8
S'361.0'
p85
sg10
S'314.4'
p86
sg12
S'water'
p87
sg14
S'332.6'
p88
sg16
S'336.1'
p89
sg18
S'336.1'
p90
sg20
S'340.3'
p91
sa(dp92
g3
S'315.4'
p93
sg5
I0
sg6
S'401.4'
p94
sg8
S'367.0'
p95
sg10
S'320.4'
p96
sg12
S'water'
p97
sg14
S'338.6'
p98
sg16
S'342.1'
p99
sg18
S'342.1'
p100
sg20
S'346.3'
p101
sa(dp102
g3
S'339.3'
p103
sg5
S'18.7'
p104
sg6
S'427.0'
p105
sg8
S'427.0'
p106
sg10
S'344.3'
p107
sg12
S'water'
p108
sg14
S'375.3'
p109
sg16
S'369.3'
p110
sg18
S'369.3'
p111
sg20
S'375.3'
p112
sa(dp113
g3
S'340.3'
p114
sg5
I0
sg6
S'435.3'
p115
sg8
S'406.6'
p116
sg10
S'345.3'
p117
sg12
S'water'
p118
sg14
S'363.5'
p119
sg16
S'367.0'
p120
sg18
S'367.0'
p121
sg20
S'371.2'
p122
sa(dp123
g3
S'351.1'
p124
sg5
S'2.1'
p125
sg6
S'446.2'
p126
sg8
S'446.2'
p127
sg10
S'356.1'
p128
sg12
S'water'
p129
sg14
S'374.7'
p130
sg16
S'381.7'
p131
sg18
S'377.8'
p132
sg20
S'390.1'
p133
sa(dp134
g3
S'355.2'
p135
sg5
S'15.4'
p136
sg6
S'466.6'
p137
sg8
S'466.6'
p138
sg10
S'360.2'
p139
sg12
S'water'
p140
sg14
S'385.9'
p141
sg16
S'384.0'
p142
sg18
S'381.9'
p143
sg20
S'394.2'
p144
sa(dp145
g3
S'375.2'
p146
sg5
S'20.0'
p147
sg6
S'506.2'
p148
sg8
S'506.2'
p149
sg10
S'380.2'
p150
sg12
S'water'
p151
sg14
S'398.4'
p152
sg16
S'401.9'
p153
sg18
S'401.9'
p154
sg20
S'409.0'
p155
sa(dp156
g3
S'381.0'
p157
sg5
S'21.8'
p158
sg6
S'485.8'
p159
sg8
S'485.8'
p160
sg10
S'386.0'
p161
sg12
S'water'
p162
sg14
S'404.2'
p163
sg16
S'407.7'
p164
sg18
S'407.7'
p165
sg20
S'413.1'
p166
sa(dp167
g3
S'408.2'
p168
sg5
S'2.2'
p169
sg6
S'525.4'
p170
sg8
S'525.4'
p171
sg10
S'413.2'
p172
sg12
S'water'
p173
sg14
S'431.4'
p174
sg16
S'434.9'
p175
sg18
S'434.9'
p176
sg20
S'439.1'
p177
sa(dp178
g3
S'453.1'
p179
sg5
S'10.7'
p180
sg6
S'545.8'
p181
sg8
S'545.8'
p182
sg10
S'458.1'
p183
sg12
S'water'
p184
sg14
S'476.3'
p185
sg16
S'479.8'
p186
sg18
S'479.8'
p187
sg20
S'484.0'
p188
sa(dp189
g3
S'490.4'
p190
sg5
I0
sg6
S'598.4'
p191
sg8
S'565.0'
p192
sg10
S'495.4'
p193
sg12
S'water'
p194
sg14
S'513.6'
p195
sg16
S'517.1'
p196
sg18
S'517.1'
p197
sg20
S'521.3'
p198
sa(dp199
g3
S'503.2'
p200
sg5
I0
sg6
S'621.2'
p201
sg8
S'604.6'
p202
sg10
S'508.2'
p203
sg12
S'water'
p204
sg14
S'526.4'
p205
sg16
S'529.9'
p206
sg18
S'529.9'
p207
sg20
S'534.1'
p208
sa(dp209
g3
S'503.7'
p210
sg5
I0
sg6
S'612.7'
p211
sg8
S'585.4'
p212
sg10
S'508.7'
p213
sg12
S'water'
p214
sg14
S'526.9'
p215
sg16
S'531.8'
p216
sg18
S'530.4'
p217
sg20
S'540.2'
p218
sa(dp219
g3
S'524.2'
p220
sg5
I0
sg6
S'625.2'
p221
sg8
S'625.0'
p222
sg10
S'529.2'
p223
sg12
S'water'
p224
sg14
S'547.4'
p225
sg16
S'550.9'
p226
sg18
S'550.9'
p227
sg20
S'555.1'
p228
sa(dp229
g3
S'580.2'
p230
sg5
S'25.9'
p231
sg6
S'704.2'
p232
sg8
S'704.2'
p233
sg10
S'585.2'
p234
sg12
S'water'
p235
sg14
S'603.5'
p236
sg16
S'607.0'
p237
sg18
S'607.0'
p238
sg20
S'611.1'
p239
sa(dp240
g3
S'586.9'
p241
sg5
S'55.7'
p242
sg6
S'714.6'
p243
sg8
S'714.6'
p244
sg10
S'591.9'
p245
sg12
S'water'
p246
sg14
S'638.9'
p247
sg16
S'620.9'
p248
sg18
S'634.9'
p249
sg20
S'633.9'
p250
sa(dp251
g3
S'597.5'
p252
sg5
S'6.1'
p253
sg6
S'664.6'
p254
sg8
S'664.6'
p255
sg10
S'602.5'
p256
sg12
S'water'
p257
sg14
S'620.7'
p258
sg16
S'624.2'
p259
sg18
S'624.2'
p260
sg20
S'630.0'
p261
sa(dp262
g3
S'629.2'
p263
sg5
S'0.5'
p264
sg6
S'743.8'
p265
sg8
S'743.8'
p266
sg10
S'634.2'
p267
sg12
S'water'
p268
sg14
S'652.5'
p269
sg16
S'656.0'
p270
sg18
S'656.0'
p271
sg20
S'660.1'
p272
sa(dp273
g3
S'734.5'
p274
sg5
S'5.0'
p275
sg6
S'856.5'
p276
sg8
S'856.5'
p277
sg10
S'739.5'
p278
sg12
S'water'
p279
sg14
S'786.5'
p280
sg16
S'768.5'
p281
sg18
S'782.5'
p282
sg20
S'781.5'
p283
sa(dp284
g3
S'754.2'
p285
sg5
I0
sg6
S'827.2'
p286
sg8
S'805.8'
p287
sg10
S'759.2'
p288
sg12
S'water'
p289
sg14
S'777.4'
p290
sg16
S'780.9'
p291
sg18
S'780.9'
p292
sg20
S'785.1'
p293
sa(dp294
g3
S'763.6'
p295
sg5
S'85.1'
p296
sg6
S'915.8'
p297
sg8
S'915.8'
p298
sg10
S'768.6'
p299
sg12
S'water'
p300
sg14
S'817.4'
p301
sg16
S'797.6'
p302
sg18
S'811.6'
p303
sg20
S'816.5'
p304
sa(dp305
g3
S'767.9'
p306
sg5
S'52.2'
p307
sg6
S'896.1'
p308
sg8
S'896.1'
p309
sg10
S'772.9'
p310
sg12
S'water'
p311
sg14
S'797.7'
p312
sg16
S'795.6'
p313
sg18
S'794.6'
p314
sg20
S'804.0'
p315
sa(dp316
g3
S'814.5'
p317
sg5
S'61.8'
p318
sg6
S'975.3'
p319
sg8
S'975.3'
p320
sg10
S'819.5'
p321
sg12
S'water'
p322
sg14
S'837.7'
p323
sg16
S'841.2'
p324
sg18
S'841.2'
p325
sg20
S'845.4'
p326
sa(dp327
g3
S'827.1'
p328
sg5
S'44.6'
p329
sg6
S'935.7'
p330
sg8
S'935.7'
p331
sg10
S'832.1'
p332
sg12
S'water'
p333
sg14
S'850.3'
p334
sg16
S'853.8'
p335
sg18
S'853.8'
p336
sg20
S'858.0'
p337
sa(dp338
g3
S'849.5'
p339
sg5
S'42.9'
p340
sg6
S'955.4'
p341
sg8
S'955.4'
p342
sg10
S'854.5'
p343
sg12
S'water'
p344
sg14
S'872.7'
p345
sg16
S'876.2'
p346
sg18
S'876.2'
p347
sg20
S'880.4'
p348
sa(dp349
g3
S'890.6'
p350
sg5
S'17.4'
p351
sg6
S'995.0'
p352
sg8
S'995.0'
p353
sg10
S'895.6'
p354
sg12
S'water'
p355
sg14
S'913.8'
p356
sg16
S'917.3'
p357
sg18
S'917.3'
p358
sg20
S'921.5'
p359
sa(dp360
g3
S'893.0'
p361
sg5
S'24.9'
p362
sg6
S'1014.9'
p363
sg8
S'1014.9'
p364
sg10
S'898.0'
p365
sg12
S'water'
p366
sg14
S'916.2'
p367
sg16
S'919.7'
p368
sg18
S'919.7'
p369
sg20
S'923.9'
p370
sa(dp371
g3
S'928.4'
p372
sg5
S'26.1'
p373
sg6
S'1054.5'
p374
sg8
S'1054.5'
p375
sg10
S'933.4'
p376
sg12
S'water'
p377
sg14
S'951.6'
p378
sg16
S'955.1'
p379
sg18
S'955.1'
p380
sg20
S'959.3'
p381
sa(dp382
g3
S'931.4'
p383
sg5
S'60.1'
p384
sg6
S'1100.6'
p385
sg8
S'1100.6'
p386
sg10
S'936.4'
p387
sg12
S'water'
p388
sg14
S'967.4'
p389
sg16
S'961.4'
p390
sg18
S'961.4'
p391
sg20
S'967.4'
p392
sa(dp393
g3
S'945.3'
p394
sg5
S'24.3'
p395
sg6
S'1034.6'
p396
sg8
S'1034.6'
p397
sg10
S'950.3'
p398
sg12
S'water'
p399
sg14
S'968.5'
p400
sg16
S'972.0'
p401
sg18
S'972.0'
p402
sg20
S'978.2'
p403
sa(dp404
g3
S'1009.0'
p405
sg5
S'0.1'
p406
sg6
S'1094.1'
p407
sg8
S'1094.1'
p408
sg10
S'1014.0'
p409
sg12
S'water'
p410
sg14
S'1032.2'
p411
sg16
S'1035.7'
p412
sg18
S'1035.7'
p413
sg20
S'1039.9'
p414
sa(dp415
g3
S'1031.6'
p416
sg5
I0
sg6
S'1141.6'
p417
sg8
S'1133.7'
p418
sg10
S'1036.6'
p419
sg12
S'water'
p420
sg14
S'1054.8'
p421
sg16
S'1058.3'
p422
sg18
S'1058.3'
p423
sg20
S'1062.5'
p424
sa(dp425
g3
S'1058.5'
p426
sg5
I0
sg6
S'1176.5'
p427
sg8
S'1140.2'
p428
sg10
S'1063.5'
p429
sg12
S'water'
p430
sg14
S'1081.7'
p431
sg16
S'1085.2'
p432
sg18
S'1085.2'
p433
sg20
S'1089.4'
p434
saF27.11304347826087
F106.40000000000001
t.