((lp1
(dp2
S'Arrival'
p3
S'32.4'
p4
sS'Late'
p5
I0
sS'Depart'
p6
S'147.4'
p7
sS'POWER'
p8
S'84.0'
p9
sS'LANDING'
p10
S'37.4'
p11
sS'WATER'
p12
S'water'
p13
sS'BAGGAGE'
p14
S'55.6'
p15
sS'CATER'
p16
S'59.1'
p17
sS'CLEAN'
p18
S'59.1'
p19
sS'FUEL'
p20
S'63.3'
p21
sa(dp22
g3
S'62.2'
p23
sg5
I0
sg6
S'141.2'
p24
sg8
S'113.8'
p25
sg10
S'67.2'
p26
sg12
S'water'
p27
sg14
S'85.4'
p28
sg16
S'88.9'
p29
sg18
S'88.9'
p30
sg20
S'93.1'
p31
sa(dp32
g3
S'93.7'
p33
sg5
I0
sg6
S'187.7'
p34
sg8
S'145.3'
p35
sg10
S'98.7'
p36
sg12
S'water'
p37
sg14
S'116.9'
p38
sg16
S'120.4'
p39
sg18
S'120.4'
p40
sg20
S'124.6'
p41
sa(dp42
g3
S'102.1'
p43
sg5
I0
sg6
S'171.1'
p44
sg8
S'153.7'
p45
sg10
S'107.1'
p46
sg12
S'water'
p47
sg14
S'125.3'
p48
sg16
S'128.8'
p49
sg18
S'128.8'
p50
sg20
S'133.0'
p51
sa(dp52
g3
S'107.6'
p53
sg5
I0
sg6
S'191.6'
p54
sg8
S'184.9'
p55
sg10
S'112.6'
p56
sg12
S'water'
p57
sg14
S'130.8'
p58
sg16
S'135.1'
p59
sg18
S'134.3'
p60
sg20
S'143.5'
p61
sa(dp62
g3
S'133.3'
p63
sg5
I0
sg6
S'247.3'
p64
sg8
S'193.3'
p65
sg10
S'138.3'
p66
sg12
S'water'
p67
sg14
S'156.5'
p68
sg16
S'160.0'
p69
sg18
S'160.0'
p70
sg20
S'164.2'
p71
sa(dp72
g3
S'148.1'
p73
sg5
I0
sg6
S'226.1'
p74
sg8
S'224.5'
p75
sg10
S'153.1'
p76
sg12
S'water'
p77
sg14
S'171.3'
p78
sg16
S'174.8'
p79
sg18
S'174.8'
p80
sg20
S'179.0'
p81
sa(dp82
g3
S'149.1'
p83
sg5
S'1.9'
p84
sg6
S'264.1'
p85
sg8
S'264.1'
p86
sg10
S'154.1'
p87
sg12
S'water'
p88
sg14
S'172.3'
p89
sg16
S'175.8'
p90
sg18
S'175.8'
p91
sg20
S'183.1'
p92
sa(dp93
g3
S'177.1'
p94
sg5
S'62.1'
p95
sg6
S'303.3'
p96
sg8
S'303.3'
p97
sg10
S'182.1'
p98
sg12
S'water'
p99
sg14
S'229.1'
p100
sg16
S'211.1'
p101
sg18
S'225.1'
p102
sg20
S'224.1'
p103
sa(dp104
g3
S'237.4'
p105
sg5
S'32.4'
p106
sg6
S'342.9'
p107
sg8
S'342.9'
p108
sg10
S'242.4'
p109
sg12
S'water'
p110
sg14
S'260.6'
p111
sg16
S'264.1'
p112
sg18
S'264.1'
p113
sg20
S'268.3'
p114
sa(dp115
g3
S'243.9'
p116
sg5
I0
sg6
S'303.9'
p117
sg8
S'303.7'
p118
sg10
S'248.9'
p119
sg12
S'water'
p120
sg14
S'267.1'
p121
sg16
S'270.6'
p122
sg18
S'270.6'
p123
sg20
S'274.8'
p124
sa(dp125
g3
S'283.8'
p126
sg5
I0
sg6
S'389.8'
p127
sg8
S'343.3'
p128
sg10
S'288.8'
p129
sg12
S'water'
p130
sg14
S'307.0'
p131
sg16
S'310.5'
p132
sg18
S'310.5'
p133
sg20
S'314.7'
p134
sa(dp135
g3
S'322.4'
p136
sg5
I0
sg6
S'410.4'
p137
sg8
S'382.5'
p138
sg10
S'327.4'
p139
sg12
S'water'
p140
sg14
S'345.6'
p141
sg16
S'349.1'
p142
sg18
S'349.1'
p143
sg20
S'353.3'
p144
sa(dp145
g3
S'335.2'
p146
sg5
I0
sg6
S'438.2'
p147
sg8
S'386.8'
p148
sg10
S'340.2'
p149
sg12
S'water'
p150
sg14
S'358.4'
p151
sg16
S'361.9'
p152
sg18
S'361.9'
p153
sg20
S'366.1'
p154
sa(dp155
g3
S'343.7'
p156
sg5
I0
sg6
S'442.7'
p157
sg8
S'426.4'
p158
sg10
S'348.7'
p159
sg12
S'water'
p160
sg14
S'366.9'
p161
sg16
S'370.4'
p162
sg18
S'370.4'
p163
sg20
S'374.6'
p164
sa(dp165
g3
S'344.7'
p166
sg5
I0
sg6
S'427.7'
p167
sg8
S'422.1'
p168
sg10
S'349.7'
p169
sg12
S'water'
p170
sg14
S'369.6'
p171
sg16
S'376.6'
p172
sg18
S'371.4'
p173
sg20
S'385.0'
p174
sa(dp175
g3
S'411.9'
p176
sg5
I0
sg6
S'496.9'
p177
sg8
S'463.5'
p178
sg10
S'416.9'
p179
sg12
S'water'
p180
sg14
S'435.1'
p181
sg16
S'438.6'
p182
sg18
S'438.6'
p183
sg20
S'442.8'
p184
sa(dp185
g3
S'442.0'
p186
sg5
I0
sg6
S'534.0'
p187
sg8
S'493.6'
p188
sg10
S'447.0'
p189
sg12
S'water'
p190
sg14
S'465.2'
p191
sg16
S'468.7'
p192
sg18
S'468.7'
p193
sg20
S'472.9'
p194
sa(dp195
g3
S'526.9'
p196
sg5
I0
sg6
S'636.9'
p197
sg8
S'578.5'
p198
sg10
S'531.9'
p199
sg12
S'water'
p200
sg14
S'550.1'
p201
sg16
S'553.6'
p202
sg18
S'553.6'
p203
sg20
S'557.8'
p204
sa(dp205
g3
S'545.6'
p206
sg5
I0
sg6
S'632.6'
p207
sg8
S'597.2'
p208
sg10
S'550.6'
p209
sg12
S'water'
p210
sg14
S'568.8'
p211
sg16
S'572.3'
p212
sg18
S'572.3'
p213
sg20
S'576.5'
p214
sa(dp215
g3
S'595.8'
p216
sg5
I0
sg6
S'655.8'
p217
sg8
S'647.4'
p218
sg10
S'600.8'
p219
sg12
S'water'
p220
sg14
S'619.0'
p221
sg16
S'622.5'
p222
sg18
S'622.5'
p223
sg20
S'626.7'
p224
sa(dp225
g3
S'692.5'
p226
sg5
I0
sg6
S'777.5'
p227
sg8
S'744.1'
p228
sg10
S'697.5'
p229
sg12
S'water'
p230
sg14
S'715.7'
p231
sg16
S'719.2'
p232
sg18
S'719.2'
p233
sg20
S'723.4'
p234
sa(dp235
g3
S'697.4'
p236
sg5
I0
sg6
S'759.4'
p237
sg8
S'749.0'
p238
sg10
S'702.4'
p239
sg12
S'water'
p240
sg14
S'720.6'
p241
sg16
S'724.1'
p242
sg18
S'724.1'
p243
sg20
S'728.3'
p244
sa(dp245
g3
S'711.6'
p246
sg5
I0
sg6
S'795.6'
p247
sg8
S'783.7'
p248
sg10
S'716.6'
p249
sg12
S'water'
p250
sg14
S'734.8'
p251
sg16
S'738.3'
p252
sg18
S'738.3'
p253
sg20
S'742.5'
p254
sa(dp255
g3
S'741.6'
p256
sg5
S'20.0'
p257
sg6
S'863.6'
p258
sg8
S'863.6'
p259
sg10
S'746.6'
p260
sg12
S'water'
p261
sg14
S'793.6'
p262
sg16
S'775.6'
p263
sg18
S'789.6'
p264
sg20
S'788.6'
p265
sa(dp266
g3
S'752.2'
p267
sg5
I0
sg6
S'853.2'
p268
sg8
S'823.3'
p269
sg10
S'757.2'
p270
sg12
S'water'
p271
sg14
S'775.4'
p272
sg16
S'778.9'
p273
sg18
S'778.9'
p274
sg20
S'783.1'
p275
sa(dp276
g3
S'783.8'
p277
sg5
S'31.5'
p278
sg6
S'933.3'
p279
sg8
S'933.3'
p280
sg10
S'788.8'
p281
sg12
S'water'
p282
sg14
S'835.8'
p283
sg16
S'817.8'
p284
sg18
S'831.8'
p285
sg20
S'830.8'
p286
sa(dp287
g3
S'808.9'
p288
sg5
S'46.0'
p289
sg6
S'972.9'
p290
sg8
S'972.9'
p291
sg10
S'813.9'
p292
sg12
S'water'
p293
sg14
S'832.1'
p294
sg16
S'835.6'
p295
sg18
S'835.6'
p296
sg20
S'839.8'
p297
sa(dp298
g3
S'823.8'
p299
sg5
S'9.5'
p300
sg6
S'903.2'
p301
sg8
S'903.2'
p302
sg10
S'828.8'
p303
sg12
S'water'
p304
sg14
S'847.0'
p305
sg16
S'850.5'
p306
sg18
S'850.5'
p307
sg20
S'854.6'
p308
sa(dp309
g3
S'840.6'
p310
sg5
S'62.4'
p311
sg6
S'1022.0'
p312
sg8
S'1022.0'
p313
sg10
S'845.6'
p314
sg12
S'water'
p315
sg14
S'863.8'
p316
sg16
S'867.3'
p317
sg18
S'867.3'
p318
sg20
S'871.5'
p319
sa(dp320
g3
S'848.8'
p321
sg5
S'25.1'
p322
sg6
S'942.8'
p323
sg8
S'942.8'
p324
sg10
S'853.8'
p325
sg12
S'water'
p326
sg14
S'872.0'
p327
sg16
S'875.5'
p328
sg18
S'875.5'
p329
sg20
S'879.7'
p330
sa(dp331
g3
S'858.9'
p332
sg5
S'52.5'
p333
sg6
S'982.4'
p334
sg8
S'982.4'
p335
sg10
S'863.9'
p336
sg12
S'water'
p337
sg14
S'882.1'
p338
sg16
S'885.6'
p339
sg18
S'885.6'
p340
sg20
S'890.4'
p341
sa(dp342
g3
S'879.7'
p343
sg5
S'66.8'
p344
sg6
S'1012.5'
p345
sg8
S'1012.5'
p346
sg10
S'884.7'
p347
sg12
S'water'
p348
sg14
S'902.9'
p349
sg16
S'906.4'
p350
sg18
S'906.4'
p351
sg20
S'910.6'
p352
sa(dp353
g3
S'897.4'
p354
sg5
S'123.4'
p355
sg6
S'1140.8'
p356
sg8
S'1140.8'
p357
sg10
S'902.4'
p358
sg12
S'water'
p359
sg14
S'920.6'
p360
sg16
S'924.1'
p361
sg18
S'924.1'
p362
sg20
S'928.3'
p363
sa(dp364
g3
S'921.7'
p365
sg5
S'95.6'
p366
sg6
S'1101.2'
p367
sg8
S'1101.2'
p368
sg10
S'926.7'
p369
sg12
S'water'
p370
sg14
S'944.9'
p371
sg16
S'948.4'
p372
sg18
S'948.4'
p373
sg20
S'952.6'
p374
sa(dp375
g3
S'922.8'
p376
sg5
S'63.8'
p377
sg6
S'1061.6'
p378
sg8
S'1061.6'
p379
sg10
S'927.8'
p380
sg12
S'water'
p381
sg14
S'946.0'
p382
sg16
S'949.5'
p383
sg18
S'949.5'
p384
sg20
S'953.7'
p385
sa(dp386
g3
S'925.8'
p387
sg5
S'90.7'
p388
sg6
S'1078.5'
p389
sg8
S'1078.5'
p390
sg10
S'930.8'
p391
sg12
S'water'
p392
sg14
S'968.9'
p393
sg16
S'966.4'
p394
sg18
S'958.7'
p395
sg20
S'976.6'
p396
sa(dp397
g3
S'936.0'
p398
sg5
S'106.1'
p399
sg6
S'1118.1'
p400
sg8
S'1118.1'
p401
sg10
S'941.0'
p402
sg12
S'water'
p403
sg14
S'959.2'
p404
sg16
S'964.2'
p405
sg18
S'962.7'
p406
sg20
S'972.6'
p407
sa(dp408
g3
S'949.4'
p409
sg5
S'145.1'
p410
sg6
S'1180.4'
p411
sg8
S'1180.4'
p412
sg10
S'954.4'
p413
sg12
S'water'
p414
sg14
S'972.6'
p415
sg16
S'978.9'
p416
sg18
S'976.1'
p417
sg20
S'991.5'
p418
sa(dp419
g3
S'963.4'
p420
sg5
S'126.3'
p421
sg6
S'1157.7'
p422
sg8
S'1157.7'
p423
sg10
S'968.4'
p424
sg12
S'water'
p425
sg14
S'986.6'
p426
sg16
S'990.1'
p427
sg18
S'990.1'
p428
sg20
S'995.5'
p429
saF64.51111111111112
F116.32749999999999
t.