((lp1
(dp2
S'Arrival'
p3
S'42.5'
p4
sS'Late'
p5
I0
sS'Depart'
p6
S'121.5'
p7
sS'POWER'
p8
S'94.1'
p9
sS'LANDING'
p10
S'47.5'
p11
sS'WATER'
p12
S'water'
p13
sS'BAGGAGE'
p14
S'65.7'
p15
sS'CATER'
p16
S'69.2'
p17
sS'CLEAN'
p18
S'69.2'
p19
sS'FUEL'
p20
S'73.4'
p21
sa(dp22
g3
S'47.9'
p23
sg5
I0
sg6
S'163.8'
p24
sg8
S'125.8'
p25
sg10
S'52.9'
p26
sg12
S'water'
p27
sg14
S'83.8'
p28
sg16
S'77.8'
p29
sg18
S'77.8'
p30
sg20
S'83.8'
p31
sa(dp32
g3
S'137.9'
p33
sg5
I0
sg6
S'203.9'
p34
sg8
S'189.5'
p35
sg10
S'142.9'
p36
sg12
S'water'
p37
sg14
S'161.1'
p38
sg16
S'164.6'
p39
sg18
S'164.6'
p40
sg20
S'168.8'
p41
sa(dp42
g3
S'222.5'
p43
sg5
I0
sg6
S'330.5'
p44
sg8
S'274.1'
p45
sg10
S'227.5'
p46
sg12
S'water'
p47
sg14
S'245.7'
p48
sg16
S'249.2'
p49
sg18
S'249.2'
p50
sg20
S'253.4'
p51
sa(dp52
g3
S'237.8'
p53
sg5
I0
sg6
S'333.9'
p54
sg8
S'289.4'
p55
sg10
S'242.8'
p56
sg12
S'water'
p57
sg14
S'261.1'
p58
sg16
S'264.6'
p59
sg18
S'264.6'
p60
sg20
S'268.8'
p61
sa(dp62
g3
S'262.5'
p63
sg5
I0
sg6
S'358.5'
p64
sg8
S'314.1'
p65
sg10
S'267.5'
p66
sg12
S'water'
p67
sg14
S'285.7'
p68
sg16
S'289.2'
p69
sg18
S'289.2'
p70
sg20
S'293.4'
p71
sa(dp72
g3
S'323.1'
p73
sg5
I0
sg6
S'425.1'
p74
sg8
S'374.7'
p75
sg10
S'328.1'
p76
sg12
S'water'
p77
sg14
S'346.3'
p78
sg16
S'349.8'
p79
sg18
S'349.8'
p80
sg20
S'354.0'
p81
sa(dp82
g3
S'374.6'
p83
sg5
S'8.0'
p84
sg6
S'452.6'
p85
sg8
S'452.6'
p86
sg10
S'379.6'
p87
sg12
S'water'
p88
sg14
S'410.6'
p89
sg16
S'404.6'
p90
sg18
S'404.6'
p91
sg20
S'410.6'
p92
sa(dp93
g3
S'417.6'
p94
sg5
I0
sg6
S'494.6'
p95
sg8
S'469.2'
p96
sg10
S'422.6'
p97
sg12
S'water'
p98
sg14
S'440.8'
p99
sg16
S'444.3'
p100
sg18
S'444.3'
p101
sg20
S'448.5'
p102
sa(dp103
g3
S'430.5'
p104
sg5
I0
sg6
S'521.5'
p105
sg8
S'492.2'
p106
sg10
S'435.5'
p107
sg12
S'water'
p108
sg14
S'453.7'
p109
sg16
S'457.2'
p110
sg18
S'457.2'
p111
sg20
S'461.4'
p112
sa(dp113
g3
S'454.9'
p114
sg5
I0
sg6
S'515.9'
p115
sg8
S'508.8'
p116
sg10
S'459.9'
p117
sg12
S'water'
p118
sg14
S'478.1'
p119
sg16
S'481.6'
p120
sg18
S'481.6'
p121
sg20
S'485.8'
p122
sa(dp123
g3
S'473.5'
p124
sg5
S'0.9'
p125
sg6
S'548.4'
p126
sg8
S'548.4'
p127
sg10
S'478.5'
p128
sg12
S'water'
p129
sg14
S'496.7'
p130
sg16
S'500.2'
p131
sg18
S'500.2'
p132
sg20
S'504.4'
p133
sa(dp134
g3
S'474.7'
p135
sg5
I0
sg6
S'541.7'
p136
sg8
S'531.8'
p137
sg10
S'479.7'
p138
sg12
S'water'
p139
sg14
S'497.9'
p140
sg16
S'501.4'
p141
sg18
S'501.4'
p142
sg20
S'505.6'
p143
sa(dp144
g3
S'496.4'
p145
sg5
S'11.0'
p146
sg6
S'571.4'
p147
sg8
S'571.4'
p148
sg10
S'501.4'
p149
sg12
S'water'
p150
sg14
S'519.6'
p151
sg16
S'523.1'
p152
sg18
S'523.1'
p153
sg20
S'527.2'
p154
sa(dp155
g3
S'497.4'
p156
sg5
S'37.6'
p157
sg6
S'611.0'
p158
sg8
S'611.0'
p159
sg10
S'502.4'
p160
sg12
S'water'
p161
sg14
S'520.6'
p162
sg16
S'524.1'
p163
sg18
S'524.1'
p164
sg20
S'528.3'
p165
sa(dp166
g3
S'499.5'
p167
sg5
S'112.5'
p168
sg6
S'698.0'
p169
sg8
S'698.0'
p170
sg10
S'504.5'
p171
sg12
S'water'
p172
sg14
S'560.6'
p173
sg16
S'546.1'
p174
sg18
S'552.4'
p175
sg20
S'563.3'
p176
sa(dp177
g3
S'501.9'
p178
sg5
S'25.1'
p179
sg6
S'588.0'
p180
sg8
S'588.0'
p181
sg10
S'506.9'
p182
sg12
S'water'
p183
sg14
S'530.8'
p184
sg16
S'537.8'
p185
sg18
S'530.1'
p186
sg20
S'546.1'
p187
sa(dp188
g3
S'503.8'
p189
sg5
S'115.8'
p190
sg6
S'737.6'
p191
sg8
S'737.6'
p192
sg10
S'508.8'
p193
sg12
S'water'
p194
sg14
S'542.0'
p195
sg16
S'560.8'
p196
sg18
S'537.1'
p197
sg20
S'582.2'
p198
sa(dp199
g3
S'524.9'
p200
sg5
S'112.1'
p201
sg6
S'721.0'
p202
sg8
S'721.0'
p203
sg10
S'529.9'
p204
sg12
S'water'
p205
sg14
S'582.0'
p206
sg16
S'559.8'
p207
sg18
S'572.9'
p208
sg20
S'581.1'
p209
sa(dp210
g3
S'586.5'
p211
sg5
S'111.7'
p212
sg6
S'800.2'
p213
sg8
S'800.2'
p214
sg10
S'591.5'
p215
sg12
S'water'
p216
sg14
S'609.7'
p217
sg16
S'613.2'
p218
sg18
S'613.2'
p219
sg20
S'617.4'
p220
sa(dp221
g3
S'607.5'
p222
sg5
S'92.7'
p223
sg6
S'777.2'
p224
sg8
S'777.2'
p225
sg10
S'612.5'
p226
sg12
S'water'
p227
sg14
S'630.7'
p228
sg16
S'634.2'
p229
sg18
S'634.2'
p230
sg20
S'638.4'
p231
sa(dp232
g3
S'610.4'
p233
sg5
S'86.1'
p234
sg6
S'760.6'
p235
sg8
S'760.6'
p236
sg10
S'615.4'
p237
sg12
S'water'
p238
sg14
S'633.6'
p239
sg16
S'637.1'
p240
sg18
S'637.1'
p241
sg20
S'641.3'
p242
sa(dp243
g3
S'656.1'
p244
sg5
S'79.7'
p245
sg6
S'816.8'
p246
sg8
S'816.8'
p247
sg10
S'661.1'
p248
sg12
S'water'
p249
sg14
S'679.3'
p250
sg16
S'682.8'
p251
sg18
S'682.8'
p252
sg20
S'687.0'
p253
sa(dp254
g3
S'661.1'
p255
sg5
S'103.3'
p256
sg6
S'879.4'
p257
sg8
S'879.4'
p258
sg10
S'666.1'
p259
sg12
S'water'
p260
sg14
S'684.3'
p261
sg16
S'687.8'
p262
sg18
S'687.8'
p263
sg20
S'692.0'
p264
sa(dp265
g3
S'679.4'
p266
sg5
S'81.0'
p267
sg6
S'856.4'
p268
sg8
S'856.4'
p269
sg10
S'684.4'
p270
sg12
S'water'
p271
sg14
S'702.6'
p272
sg16
S'706.1'
p273
sg18
S'706.1'
p274
sg20
S'710.3'
p275
sa(dp276
g3
S'683.8'
p277
sg5
S'83.0'
p278
sg6
S'839.8'
p279
sg8
S'839.8'
p280
sg10
S'688.8'
p281
sg12
S'water'
p282
sg14
S'707.0'
p283
sg16
S'710.5'
p284
sg18
S'710.5'
p285
sg20
S'714.7'
p286
sa(dp287
g3
S'685.8'
p288
sg5
S'108.3'
p289
sg6
S'896.0'
p290
sg8
S'896.0'
p291
sg10
S'690.8'
p292
sg12
S'water'
p293
sg14
S'713.8'
p294
sg16
S'720.8'
p295
sg18
S'713.1'
p296
sg20
S'729.2'
p297
sa(dp298
g3
S'731.7'
p299
sg5
S'79.3'
p300
sg6
S'919.0'
p301
sg8
S'919.0'
p302
sg10
S'736.7'
p303
sg12
S'water'
p304
sg14
S'754.9'
p305
sg16
S'758.4'
p306
sg18
S'758.4'
p307
sg20
S'762.6'
p308
sa(dp309
g3
S'740.2'
p310
sg5
S'153.8'
p311
sg6
S'1006.0'
p312
sg8
S'1006.0'
p313
sg10
S'745.2'
p314
sg12
S'water'
p315
sg14
S'792.2'
p316
sg16
S'774.2'
p317
sg18
S'788.2'
p318
sg20
S'787.2'
p319
sa(dp320
g3
S'792.8'
p321
sg5
S'95.7'
p322
sg6
S'958.6'
p323
sg8
S'958.6'
p324
sg10
S'797.8'
p325
sg12
S'water'
p326
sg14
S'816.0'
p327
sg16
S'819.5'
p328
sg18
S'819.5'
p329
sg20
S'823.7'
p330
sa(dp331
g3
S'822.8'
p332
sg5
S'99.4'
p333
sg6
S'998.2'
p334
sg8
S'998.2'
p335
sg10
S'827.8'
p336
sg12
S'water'
p337
sg14
S'846.0'
p338
sg16
S'849.5'
p339
sg18
S'849.5'
p340
sg20
S'853.7'
p341
sa(dp342
g3
S'828.4'
p343
sg5
S'115.4'
p344
sg6
S'1037.8'
p345
sg8
S'1037.8'
p346
sg10
S'833.4'
p347
sg12
S'water'
p348
sg14
S'851.6'
p349
sg16
S'855.1'
p350
sg18
S'855.1'
p351
sg20
S'859.3'
p352
sa(dp353
g3
S'855.3'
p354
sg5
S'103.3'
p355
sg6
S'1045.6'
p356
sg8
S'1045.6'
p357
sg10
S'860.3'
p358
sg12
S'water'
p359
sg14
S'878.5'
p360
sg16
S'882.0'
p361
sg18
S'882.0'
p362
sg20
S'886.2'
p363
sa(dp364
g3
S'920.3'
p365
sg5
S'77.1'
p366
sg6
S'1077.4'
p367
sg8
S'1077.4'
p368
sg10
S'925.3'
p369
sg12
S'water'
p370
sg14
S'943.5'
p371
sg16
S'947.0'
p372
sg18
S'947.0'
p373
sg20
S'951.2'
p374
sa(dp375
g3
S'949.6'
p376
sg5
S'54.6'
p377
sg6
S'1085.2'
p378
sg8
S'1085.2'
p379
sg10
S'954.6'
p380
sg12
S'water'
p381
sg14
S'972.8'
p382
sg16
S'976.3'
p383
sg18
S'976.3'
p384
sg20
S'980.5'
p385
sa(dp386
g3
S'955.3'
p387
sg5
S'55.7'
p388
sg6
S'1117.0'
p389
sg8
S'1117.0'
p390
sg10
S'960.3'
p391
sg12
S'water'
p392
sg14
S'978.5'
p393
sg16
S'982.0'
p394
sg18
S'982.0'
p395
sg20
S'986.2'
p396
sa(dp397
g3
S'971.5'
p398
sg5
S'45.3'
p399
sg6
S'1124.8'
p400
sg8
S'1124.8'
p401
sg10
S'976.5'
p402
sg12
S'water'
p403
sg14
S'994.7'
p404
sg16
S'998.2'
p405
sg18
S'998.2'
p406
sg20
S'1002.4'
p407
sa(dp408
g3
S'1004.4'
p409
sg5
S'37.2'
p410
sg6
S'1156.6'
p411
sg8
S'1156.6'
p412
sg10
S'1009.4'
p413
sg12
S'water'
p414
sg14
S'1027.6'
p415
sg16
S'1031.1'
p416
sg18
S'1031.1'
p417
sg20
S'1035.3'
p418
sa(dp419
g3
S'1015.0'
p420
sg5
S'29.4'
p421
sg6
S'1164.4'
p422
sg8
S'1164.4'
p423
sg10
S'1020.0'
p424
sg12
S'water'
p425
sg14
S'1038.2'
p426
sg16
S'1041.7'
p427
sg18
S'1041.7'
p428
sg20
S'1045.9'
p429
sa(dp430
g3
S'1050.4'
p431
sg5
S'35.7'
p432
sg6
S'1196.2'
p433
sg8
S'1196.2'
p434
sg10
S'1055.4'
p435
sg12
S'water'
p436
sg14
S'1073.6'
p437
sg16
S'1077.1'
p438
sg18
S'1077.1'
p439
sg20
S'1081.3'
p440
saF74.162068965517236
F142.9975
t.