((lp1
(dp2
S'Arrival'
p3
S'24.3'
p4
sS'Late'
p5
I0
sS'Depart'
p6
S'142.3'
p7
sS'POWER'
p8
S'75.9'
p9
sS'LANDING'
p10
S'29.3'
p11
sS'WATER'
p12
S'water'
p13
sS'BAGGAGE'
p14
S'47.5'
p15
sS'CATER'
p16
S'51.0'
p17
sS'CLEAN'
p18
S'51.0'
p19
sS'FUEL'
p20
S'55.2'
p21
sa(dp22
g3
S'32.1'
p23
sg5
I0
sg6
S'109.1'
p24
sg8
S'83.7'
p25
sg10
S'37.1'
p26
sg12
S'water'
p27
sg14
S'55.3'
p28
sg16
S'58.8'
p29
sg18
S'58.8'
p30
sg20
S'63.0'
p31
sa(dp32
g3
S'48.1'
p33
sg5
I0
sg6
S'135.1'
p34
sg8
S'126.1'
p35
sg10
S'53.1'
p36
sg12
S'water'
p37
sg14
S'84.1'
p38
sg16
S'78.1'
p39
sg18
S'78.1'
p40
sg20
S'84.1'
p41
sa(dp42
g3
S'55.5'
p43
sg5
I0
sg6
S'168.5'
p44
sg8
S'115.5'
p45
sg10
S'60.5'
p46
sg12
S'water'
p47
sg14
S'78.7'
p48
sg16
S'82.2'
p49
sg18
S'82.2'
p50
sg20
S'86.4'
p51
sa(dp52
g3
S'73.3'
p53
sg5
I0
sg6
S'149.3'
p54
sg8
S'124.9'
p55
sg10
S'78.3'
p56
sg12
S'water'
p57
sg14
S'96.5'
p58
sg16
S'100.0'
p59
sg18
S'100.0'
p60
sg20
S'104.2'
p61
sa(dp62
g3
S'75.3'
p63
sg5
I0
sg6
S'155.1'
p64
sg8
S'155.1'
p65
sg10
S'80.3'
p66
sg12
S'water'
p67
sg14
S'98.5'
p68
sg16
S'102.0'
p69
sg18
S'102.0'
p70
sg20
S'106.2'
p71
sa(dp72
g3
S'118.3'
p73
sg5
I0
sg6
S'225.3'
p74
sg8
S'169.9'
p75
sg10
S'123.3'
p76
sg12
S'water'
p77
sg14
S'141.5'
p78
sg16
S'145.0'
p79
sg18
S'145.0'
p80
sg20
S'149.2'
p81
sa(dp82
g3
S'157.1'
p83
sg5
I0
sg6
S'265.1'
p84
sg8
S'208.7'
p85
sg10
S'162.1'
p86
sg12
S'water'
p87
sg14
S'180.2'
p88
sg16
S'183.8'
p89
sg18
S'183.8'
p90
sg20
S'188.0'
p91
sa(dp92
g3
S'210.9'
p93
sg5
I0
sg6
S'289.9'
p94
sg8
S'262.5'
p95
sg10
S'215.9'
p96
sg12
S'water'
p97
sg14
S'234.1'
p98
sg16
S'237.6'
p99
sg18
S'237.6'
p100
sg20
S'241.8'
p101
sa(dp102
g3
S'237.8'
p103
sg5
I0
sg6
S'312.8'
p104
sg8
S'289.4'
p105
sg10
S'242.8'
p106
sg12
S'water'
p107
sg14
S'261.0'
p108
sg16
S'264.5'
p109
sg18
S'264.5'
p110
sg20
S'268.7'
p111
sa(dp112
g3
S'250.9'
p113
sg5
I0
sg6
S'350.9'
p114
sg8
S'328.9'
p115
sg10
S'255.9'
p116
sg12
S'water'
p117
sg14
S'286.9'
p118
sg16
S'280.9'
p119
sg18
S'280.9'
p120
sg20
S'286.9'
p121
sa(dp122
g3
S'288.9'
p123
sg5
S'28.0'
p124
sg6
S'410.9'
p125
sg8
S'410.9'
p126
sg10
S'293.9'
p127
sg12
S'water'
p128
sg14
S'340.9'
p129
sg16
S'322.9'
p130
sg18
S'336.9'
p131
sg20
S'335.9'
p132
sa(dp133
g3
S'302.4'
p134
sg5
I0
sg6
S'398.4'
p135
sg8
S'354.0'
p136
sg10
S'307.4'
p137
sg12
S'water'
p138
sg14
S'325.6'
p139
sg16
S'329.1'
p140
sg18
S'329.1'
p141
sg20
S'333.3'
p142
sa(dp143
g3
S'304.6'
p144
sg5
I0
sg6
S'397.6'
p145
sg8
S'368.5'
p146
sg10
S'309.6'
p147
sg12
S'water'
p148
sg14
S'327.8'
p149
sg16
S'331.3'
p150
sg18
S'331.3'
p151
sg20
S'335.5'
p152
sa(dp153
g3
S'311.1'
p154
sg5
I0
sg6
S'426.1'
p155
sg8
S'393.6'
p156
sg10
S'316.1'
p157
sg12
S'water'
p158
sg14
S'336.8'
p159
sg16
S'337.8'
p160
sg18
S'337.8'
p161
sg20
S'352.2'
p162
sa(dp163
g3
S'357.3'
p164
sg5
I0
sg6
S'461.3'
p165
sg8
S'408.9'
p166
sg10
S'362.3'
p167
sg12
S'water'
p168
sg14
S'380.5'
p169
sg16
S'384.0'
p170
sg18
S'384.0'
p171
sg20
S'388.2'
p172
sa(dp173
g3
S'468.2'
p174
sg5
I0
sg6
S'581.2'
p175
sg8
S'519.8'
p176
sg10
S'473.2'
p177
sg12
S'water'
p178
sg14
S'491.4'
p179
sg16
S'494.9'
p180
sg18
S'494.9'
p181
sg20
S'499.1'
p182
sa(dp183
g3
S'475.9'
p184
sg5
I0
sg6
S'592.9'
p185
sg8
S'527.5'
p186
sg10
S'480.9'
p187
sg12
S'water'
p188
sg14
S'499.1'
p189
sg16
S'502.6'
p190
sg18
S'502.6'
p191
sg20
S'506.8'
p192
sa(dp193
g3
S'520.8'
p194
sg5
I0
sg6
S'587.8'
p195
sg8
S'572.4'
p196
sg10
S'525.8'
p197
sg12
S'water'
p198
sg14
S'544.0'
p199
sg16
S'547.5'
p200
sg18
S'547.5'
p201
sg20
S'551.7'
p202
sa(dp203
g3
S'528.0'
p204
sg5
I0
sg6
S'617.0'
p205
sg8
S'579.6'
p206
sg10
S'533.0'
p207
sg12
S'water'
p208
sg14
S'551.2'
p209
sg16
S'554.7'
p210
sg18
S'554.7'
p211
sg20
S'558.9'
p212
sa(dp213
g3
S'555.5'
p214
sg5
I0
sg6
S'650.5'
p215
sg8
S'633.5'
p216
sg10
S'560.5'
p217
sg12
S'water'
p218
sg14
S'591.5'
p219
sg16
S'585.5'
p220
sg18
S'585.5'
p221
sg20
S'591.5'
p222
sa(dp223
g3
S'561.0'
p224
sg5
I0
sg6
S'661.0'
p225
sg8
S'612.6'
p226
sg10
S'566.0'
p227
sg12
S'water'
p228
sg14
S'584.2'
p229
sg16
S'587.7'
p230
sg18
S'587.7'
p231
sg20
S'591.9'
p232
sa(dp233
g3
S'561.4'
p234
sg5
S'29.2'
p235
sg6
S'689.6'
p236
sg8
S'689.6'
p237
sg10
S'566.4'
p238
sg12
S'water'
p239
sg14
S'613.4'
p240
sg16
S'595.4'
p241
sg18
S'609.4'
p242
sg20
S'608.4'
p243
sa(dp244
g3
S'571.5'
p245
sg5
S'55.0'
p246
sg6
S'743.5'
p247
sg8
S'743.5'
p248
sg10
S'576.5'
p249
sg12
S'water'
p250
sg14
S'624.2'
p251
sg16
S'607.5'
p252
sg18
S'619.5'
p253
sg20
S'626.9'
p254
sa(dp255
g3
S'577.4'
p256
sg5
I0
sg6
S'652.2'
p257
sg8
S'652.2'
p258
sg10
S'582.4'
p259
sg12
S'water'
p260
sg14
S'602.7'
p261
sg16
S'604.1'
p262
sg18
S'604.1'
p263
sg20
S'610.4'
p264
sa(dp265
g3
S'600.7'
p266
sg5
I0
sg6
S'696.7'
p267
sg8
S'691.8'
p268
sg10
S'605.7'
p269
sg12
S'water'
p270
sg14
S'623.9'
p271
sg16
S'627.4'
p272
sg18
S'627.4'
p273
sg20
S'631.6'
p274
sa(dp275
g3
S'660.2'
p276
sg5
I0
sg6
S'742.2'
p277
sg8
S'729.2'
p278
sg10
S'665.2'
p279
sg12
S'water'
p280
sg14
S'683.4'
p281
sg16
S'686.9'
p282
sg18
S'686.9'
p283
sg20
S'691.1'
p284
sa(dp285
g3
S'666.4'
p286
sg5
I0
sg6
S'783.1'
p287
sg8
S'783.1'
p288
sg10
S'671.4'
p289
sg12
S'water'
p290
sg14
S'689.6'
p291
sg16
S'693.1'
p292
sg18
S'693.1'
p293
sg20
S'697.3'
p294
sa(dp295
g3
S'672.0'
p296
sg5
I0
sg6
S'756.0'
p297
sg8
S'731.4'
p298
sg10
S'677.0'
p299
sg12
S'water'
p300
sg14
S'695.2'
p301
sg16
S'698.7'
p302
sg18
S'698.7'
p303
sg20
S'702.9'
p304
sa(dp305
g3
S'674.8'
p306
sg5
I0
sg6
S'768.8'
p307
sg8
S'768.8'
p308
sg10
S'679.8'
p309
sg12
S'water'
p310
sg14
S'698.0'
p311
sg16
S'701.6'
p312
sg18
S'701.5'
p313
sg20
S'710.0'
p314
sa(dp315
g3
S'693.1'
p316
sg5
S'16.3'
p317
sg6
S'808.4'
p318
sg8
S'808.4'
p319
sg10
S'698.1'
p320
sg12
S'water'
p321
sg14
S'716.3'
p322
sg16
S'719.8'
p323
sg18
S'719.8'
p324
sg20
S'724.0'
p325
sa(dp326
g3
S'711.5'
p327
sg5
I0
sg6
S'775.5'
p328
sg8
S'771.0'
p329
sg10
S'716.5'
p330
sg12
S'water'
p331
sg14
S'734.8'
p332
sg16
S'738.2'
p333
sg18
S'738.2'
p334
sg20
S'742.4'
p335
sa(dp336
g3
S'711.6'
p337
sg5
I0
sg6
S'821.6'
p338
sg8
S'810.6'
p339
sg10
S'716.6'
p340
sg12
S'water'
p341
sg14
S'734.8'
p342
sg16
S'738.3'
p343
sg18
S'738.3'
p344
sg20
S'742.5'
p345
sa(dp346
g3
S'740.3'
p347
sg5
I0
sg6
S'852.3'
p348
sg8
S'822.7'
p349
sg10
S'745.3'
p350
sg12
S'water'
p351
sg14
S'763.5'
p352
sg16
S'767.0'
p353
sg18
S'767.0'
p354
sg20
S'771.2'
p355
sa(dp356
g3
S'760.7'
p357
sg5
I0
sg6
S'859.7'
p358
sg8
S'848.0'
p359
sg10
S'765.7'
p360
sg12
S'water'
p361
sg14
S'783.9'
p362
sg16
S'787.4'
p363
sg18
S'787.4'
p364
sg20
S'791.6'
p365
sa(dp366
g3
S'914.5'
p367
sg5
I0
sg6
S'1033.5'
p368
sg8
S'966.1'
p369
sg10
S'919.5'
p370
sg12
S'water'
p371
sg14
S'937.7'
p372
sg16
S'941.2'
p373
sg18
S'941.2'
p374
sg20
S'945.4'
p375
sa(dp376
g3
S'964.6'
p377
sg5
I0
sg6
S'1048.6'
p378
sg8
S'1016.2'
p379
sg10
S'969.6'
p380
sg12
S'water'
p381
sg14
S'987.8'
p382
sg16
S'991.3'
p383
sg18
S'991.3'
p384
sg20
S'995.5'
p385
sa(dp386
g3
S'1008.8'
p387
sg5
I0
sg6
S'1122.8'
p388
sg8
S'1060.4'
p389
sg10
S'1013.8'
p390
sg12
S'water'
p391
sg14
S'1032.0'
p392
sg16
S'1035.5'
p393
sg18
S'1035.5'
p394
sg20
S'1039.7'
p395
sa(dp396
g3
S'1025.3'
p397
sg5
I0
sg6
S'1101.3'
p398
sg8
S'1076.9'
p399
sg10
S'1030.3'
p400
sg12
S'water'
p401
sg14
S'1048.5'
p402
sg16
S'1052.0'
p403
sg18
S'1052.0'
p404
sg20
S'1056.2'
p405
sa(dp406
g3
S'1048.2'
p407
sg5
I0
sg6
S'1113.2'
p408
sg8
S'1099.8'
p409
sg10
S'1053.2'
p410
sg12
S'water'
p411
sg14
S'1071.4'
p412
sg16
S'1074.9'
p413
sg18
S'1074.9'
p414
sg20
S'1079.1'
p415
saF98.420000000000002
F32.125
I4
t.