((lp1
(dp2
S'Arrival'
p3
S'1.2'
p4
sS'Late'
p5
I0
sS'Depart'
p6
S'85.2'
p7
sS'POWER'
p8
S'57.2'
p9
sS'LANDING'
p10
S'6.2'
p11
sS'WATER'
p12
S'water'
p13
sS'BAGGAGE'
p14
S'29.2'
p15
sS'CATER'
p16
S'35.2'
p17
sS'CLEAN'
p18
S'31.2'
p19
sS'FUEL'
p20
S'37.2'
p21
sa(dp22
g3
S'62.5'
p23
sg5
I0
sg6
S'151.5'
p24
sg8
S'118.5'
p25
sg10
S'67.5'
p26
sg12
S'water'
p27
sg14
S'90.5'
p28
sg16
S'96.5'
p29
sg18
S'92.5'
p30
sg20
S'98.5'
p31
sa(dp32
g3
S'77.2'
p33
sg5
I0
sg6
S'151.2'
p34
sg8
S'133.2'
p35
sg10
S'82.2'
p36
sg12
S'water'
p37
sg14
S'105.2'
p38
sg16
S'111.2'
p39
sg18
S'107.2'
p40
sg20
S'113.2'
p41
sa(dp42
g3
S'83.7'
p43
sg5
I0
sg6
S'151.7'
p44
sg8
S'139.7'
p45
sg10
S'88.7'
p46
sg12
S'water'
p47
sg14
S'111.7'
p48
sg16
S'117.7'
p49
sg18
S'113.7'
p50
sg20
S'119.7'
p51
sa(dp52
g3
S'120.0'
p53
sg5
I0
sg6
S'214.0'
p54
sg8
S'176.0'
p55
sg10
S'125.0'
p56
sg12
S'water'
p57
sg14
S'148.0'
p58
sg16
S'154.0'
p59
sg18
S'150.0'
p60
sg20
S'156.0'
p61
sa(dp62
g3
S'140.4'
p63
sg5
I0
sg6
S'226.4'
p64
sg8
S'196.4'
p65
sg10
S'145.4'
p66
sg12
S'water'
p67
sg14
S'168.4'
p68
sg16
S'174.4'
p69
sg18
S'170.4'
p70
sg20
S'176.4'
p71
sa(dp72
g3
S'156.1'
p73
sg5
I0
sg6
S'281.1'
p74
sg8
S'212.1'
p75
sg10
S'161.1'
p76
sg12
S'water'
p77
sg14
S'184.1'
p78
sg16
S'190.1'
p79
sg18
S'186.1'
p80
sg20
S'192.1'
p81
sa(dp82
g3
S'226.2'
p83
sg5
I0
sg6
S'303.2'
p84
sg8
S'282.2'
p85
sg10
S'231.2'
p86
sg12
S'water'
p87
sg14
S'254.2'
p88
sg16
S'260.2'
p89
sg18
S'256.2'
p90
sg20
S'262.2'
p91
sa(dp92
g3
S'226.6'
p93
sg5
I0
sg6
S'292.6'
p94
sg8
S'282.6'
p95
sg10
S'231.6'
p96
sg12
S'water'
p97
sg14
S'254.6'
p98
sg16
S'260.6'
p99
sg18
S'256.6'
p100
sg20
S'262.6'
p101
sa(dp102
g3
S'237.7'
p103
sg5
I0
sg6
S'330.7'
p104
sg8
S'293.7'
p105
sg10
S'242.7'
p106
sg12
S'water'
p107
sg14
S'265.7'
p108
sg16
S'271.7'
p109
sg18
S'267.7'
p110
sg20
S'273.7'
p111
sa(dp112
g3
S'277.7'
p113
sg5
I0
sg6
S'349.7'
p114
sg8
S'333.7'
p115
sg10
S'282.7'
p116
sg12
S'water'
p117
sg14
S'305.7'
p118
sg16
S'311.7'
p119
sg18
S'307.7'
p120
sg20
S'313.7'
p121
sa(dp122
g3
S'293.4'
p123
sg5
I0
sg6
S'396.4'
p124
sg8
S'349.4'
p125
sg10
S'298.4'
p126
sg12
S'water'
p127
sg14
S'321.4'
p128
sg16
S'327.4'
p129
sg18
S'323.4'
p130
sg20
S'329.4'
p131
sa(dp132
g3
S'363.7'
p133
sg5
I0
sg6
S'432.7'
p134
sg8
S'419.7'
p135
sg10
S'368.7'
p136
sg12
S'water'
p137
sg14
S'391.7'
p138
sg16
S'397.7'
p139
sg18
S'393.7'
p140
sg20
S'399.7'
p141
sa(dp142
g3
S'410.4'
p143
sg5
I0
sg6
S'487.4'
p144
sg8
S'466.4'
p145
sg10
S'415.4'
p146
sg12
S'water'
p147
sg14
S'438.4'
p148
sg16
S'444.4'
p149
sg18
S'440.4'
p150
sg20
S'446.4'
p151
sa(dp152
g3
S'413.7'
p153
sg5
I0
sg6
S'516.7'
p154
sg8
S'469.7'
p155
sg10
S'418.7'
p156
sg12
S'water'
p157
sg14
S'441.7'
p158
sg16
S'447.7'
p159
sg18
S'443.7'
p160
sg20
S'449.7'
p161
sa(dp162
g3
S'429.7'
p163
sg5
I0
sg6
S'494.7'
p164
sg8
S'485.7'
p165
sg10
S'434.7'
p166
sg12
S'water'
p167
sg14
S'457.7'
p168
sg16
S'463.7'
p169
sg18
S'459.7'
p170
sg20
S'465.7'
p171
sa(dp172
g3
S'471.1'
p173
sg5
I0
sg6
S'553.1'
p174
sg8
S'527.1'
p175
sg10
S'476.1'
p176
sg12
S'water'
p177
sg14
S'499.1'
p178
sg16
S'505.1'
p179
sg18
S'501.1'
p180
sg20
S'507.1'
p181
sa(dp182
g3
S'534.1'
p183
sg5
I0
sg6
S'614.1'
p184
sg8
S'590.1'
p185
sg10
S'539.1'
p186
sg12
S'water'
p187
sg14
S'562.1'
p188
sg16
S'568.1'
p189
sg18
S'564.1'
p190
sg20
S'570.1'
p191
sa(dp192
g3
S'568.3'
p193
sg5
I0
sg6
S'663.3'
p194
sg8
S'624.3'
p195
sg10
S'573.3'
p196
sg12
S'water'
p197
sg14
S'596.3'
p198
sg16
S'602.3'
p199
sg18
S'598.3'
p200
sg20
S'604.3'
p201
sa(dp202
g3
S'582.8'
p203
sg5
I0
sg6
S'650.8'
p204
sg8
S'638.8'
p205
sg10
S'587.8'
p206
sg12
S'water'
p207
sg14
S'610.8'
p208
sg16
S'616.8'
p209
sg18
S'612.8'
p210
sg20
S'618.8'
p211
sa(dp212
g3
S'639.0'
p213
sg5
I0
sg6
S'736.0'
p214
sg8
S'695.0'
p215
sg10
S'644.0'
p216
sg12
S'water'
p217
sg14
S'667.0'
p218
sg16
S'673.0'
p219
sg18
S'669.0'
p220
sg20
S'675.0'
p221
sa(dp222
g3
S'652.6'
p223
sg5
I0
sg6
S'763.6'
p224
sg8
S'708.6'
p225
sg10
S'657.6'
p226
sg12
S'water'
p227
sg14
S'680.6'
p228
sg16
S'686.6'
p229
sg18
S'682.6'
p230
sg20
S'688.6'
p231
sa(dp232
g3
S'659.5'
p233
sg5
I0
sg6
S'737.5'
p234
sg8
S'715.5'
p235
sg10
S'664.5'
p236
sg12
S'water'
p237
sg14
S'687.5'
p238
sg16
S'693.5'
p239
sg18
S'689.5'
p240
sg20
S'695.5'
p241
sa(dp242
g3
S'673.1'
p243
sg5
I0
sg6
S'754.1'
p244
sg8
S'739.0'
p245
sg10
S'678.1'
p246
sg12
S'water'
p247
sg14
S'701.1'
p248
sg16
S'707.1'
p249
sg18
S'703.1'
p250
sg20
S'709.1'
p251
sa(dp252
g3
S'686.4'
p253
sg5
I0
sg6
S'783.4'
p254
sg8
S'752.6'
p255
sg10
S'691.4'
p256
sg12
S'water'
p257
sg14
S'714.4'
p258
sg16
S'720.4'
p259
sg18
S'716.4'
p260
sg20
S'722.4'
p261
sa(dp262
g3
S'705.3'
p263
sg5
I0
sg6
S'802.3'
p264
sg8
S'771.3'
p265
sg10
S'710.3'
p266
sg12
S'water'
p267
sg14
S'745.3'
p268
sg16
S'754.3'
p269
sg18
S'753.3'
p270
sg20
S'752.3'
p271
sa(dp272
g3
S'711.7'
p273
sg5
I0
sg6
S'814.7'
p274
sg8
S'783.0'
p275
sg10
S'716.7'
p276
sg12
S'water'
p277
sg14
S'739.7'
p278
sg16
S'745.7'
p279
sg18
S'741.7'
p280
sg20
S'747.7'
p281
sa(dp282
g3
S'749.6'
p283
sg5
I0
sg6
S'869.6'
p284
sg8
S'801.2'
p285
sg10
S'754.6'
p286
sg12
S'water'
p287
sg14
S'772.8'
p288
sg16
S'779.1'
p289
sg18
S'776.3'
p290
sg20
S'780.5'
p291
sa(dp292
g3
S'766.3'
p293
sg5
I0
sg6
S'834.3'
p294
sg8
S'822.3'
p295
sg10
S'771.3'
p296
sg12
S'water'
p297
sg14
S'794.3'
p298
sg16
S'800.3'
p299
sg18
S'796.3'
p300
sg20
S'802.3'
p301
sa(dp302
g3
S'769.6'
p303
sg5
I0
sg6
S'862.6'
p304
sg8
S'827.0'
p305
sg10
S'774.6'
p306
sg12
S'water'
p307
sg14
S'797.6'
p308
sg16
S'803.6'
p309
sg18
S'799.6'
p310
sg20
S'805.6'
p311
sa(dp312
g3
S'825.2'
p313
sg5
I0
sg6
S'897.2'
p314
sg8
S'881.2'
p315
sg10
S'830.2'
p316
sg12
S'water'
p317
sg14
S'853.2'
p318
sg16
S'859.2'
p319
sg18
S'855.2'
p320
sg20
S'861.2'
p321
sa(dp322
g3
S'843.8'
p323
sg5
I0
sg6
S'922.8'
p324
sg8
S'899.8'
p325
sg10
S'848.8'
p326
sg12
S'water'
p327
sg14
S'871.8'
p328
sg16
S'877.8'
p329
sg18
S'873.8'
p330
sg20
S'879.8'
p331
sa(dp332
g3
S'883.8'
p333
sg5
I0
sg6
S'964.8'
p334
sg8
S'949.8'
p335
sg10
S'888.8'
p336
sg12
S'water'
p337
sg14
S'923.8'
p338
sg16
S'932.8'
p339
sg18
S'931.8'
p340
sg20
S'930.8'
p341
sa(dp342
g3
S'893.6'
p343
sg5
I0
sg6
S'1000.6'
p344
sg8
S'949.6'
p345
sg10
S'898.6'
p346
sg12
S'water'
p347
sg14
S'921.6'
p348
sg16
S'927.6'
p349
sg18
S'923.6'
p350
sg20
S'929.6'
p351
sa(dp352
g3
S'934.0'
p353
sg5
I0
sg6
S'1025.0'
p354
sg8
S'990.0'
p355
sg10
S'939.0'
p356
sg12
S'water'
p357
sg14
S'962.0'
p358
sg16
S'968.0'
p359
sg18
S'964.0'
p360
sg20
S'970.0'
p361
sa(dp362
g3
S'936.9'
p363
sg5
I0
sg6
S'1032.9'
p364
sg8
S'993.6'
p365
sg10
S'941.9'
p366
sg12
S'water'
p367
sg14
S'964.9'
p368
sg16
S'970.9'
p369
sg18
S'966.9'
p370
sg20
S'972.9'
p371
sa(dp372
g3
S'948.0'
p373
sg5
I0
sg6
S'1029.0'
p374
sg8
S'1004.0'
p375
sg10
S'953.0'
p376
sg12
S'water'
p377
sg14
S'976.0'
p378
sg16
S'982.0'
p379
sg18
S'978.0'
p380
sg20
S'984.0'
p381
sa(dp382
g3
S'956.8'
p383
sg5
I0
sg6
S'1034.0'
p384
sg8
S'1034.0'
p385
sg10
S'961.8'
p386
sg12
S'water'
p387
sg14
S'984.8'
p388
sg16
S'990.8'
p389
sg18
S'986.8'
p390
sg20
S'994.0'
p391
sa(dp392
g3
S'965.9'
p393
sg5
I0
sg6
S'1073.9'
p394
sg8
S'1037.6'
p395
sg10
S'970.9'
p396
sg12
S'water'
p397
sg14
S'993.9'
p398
sg16
S'999.9'
p399
sg18
S'995.9'
p400
sg20
S'1001.9'
p401
sa(dp402
g3
S'992.4'
p403
sg5
I0
sg6
S'1114.4'
p404
sg8
S'1048.4'
p405
sg10
S'997.4'
p406
sg12
S'water'
p407
sg14
S'1020.4'
p408
sg16
S'1026.4'
p409
sg18
S'1022.4'
p410
sg20
S'1028.4'
p411
saF88.22999999999999
I0
I0
t.