((lp1
(dp2
S'Arrival'
p3
S'50.4'
p4
sS'Late'
p5
I0
sS'Depart'
p6
S'145.4'
p7
sS'POWER'
p8
S'102.0'
p9
sS'LANDING'
p10
S'55.4'
p11
sS'WATER'
p12
S'water'
p13
sS'BAGGAGE'
p14
S'73.6'
p15
sS'CATER'
p16
S'77.1'
p17
sS'CLEAN'
p18
S'77.1'
p19
sS'FUEL'
p20
S'81.3'
p21
sa(dp22
g3
S'56.1'
p23
sg5
I0
sg6
S'131.1'
p24
sg8
S'107.7'
p25
sg10
S'61.1'
p26
sg12
S'water'
p27
sg14
S'79.3'
p28
sg16
S'82.8'
p29
sg18
S'82.8'
p30
sg20
S'87.0'
p31
sa(dp32
g3
S'58.3'
p33
sg5
I0
sg6
S'122.3'
p34
sg8
S'109.9'
p35
sg10
S'63.3'
p36
sg12
S'water'
p37
sg14
S'81.5'
p38
sg16
S'85.0'
p39
sg18
S'85.0'
p40
sg20
S'89.2'
p41
sa(dp42
g3
S'64.2'
p43
sg5
I0
sg6
S'162.2'
p44
sg8
S'141.6'
p45
sg10
S'69.2'
p46
sg12
S'water'
p47
sg14
S'87.4'
p48
sg16
S'91.8'
p49
sg18
S'90.9'
p50
sg20
S'100.2'
p51
sa(dp52
g3
S'93.5'
p53
sg5
I0
sg6
S'197.4'
p54
sg8
S'147.3'
p55
sg10
S'98.5'
p56
sg12
S'water'
p57
sg14
S'116.7'
p58
sg16
S'120.2'
p59
sg18
S'120.2'
p60
sg20
S'124.3'
p61
sa(dp62
g3
S'125.7'
p63
sg5
I0
sg6
S'214.7'
p64
sg8
S'177.3'
p65
sg10
S'130.7'
p66
sg12
S'water'
p67
sg14
S'148.9'
p68
sg16
S'152.4'
p69
sg18
S'152.4'
p70
sg20
S'156.6'
p71
sa(dp72
g3
S'160.0'
p73
sg5
I0
sg6
S'221.0'
p74
sg8
S'211.6'
p75
sg10
S'165.0'
p76
sg12
S'water'
p77
sg14
S'183.2'
p78
sg16
S'186.7'
p79
sg18
S'186.7'
p80
sg20
S'190.9'
p81
sa(dp82
g3
S'170.4'
p83
sg5
I0
sg6
S'263.4'
p84
sg8
S'222.0'
p85
sg10
S'175.4'
p86
sg12
S'water'
p87
sg14
S'193.6'
p88
sg16
S'197.1'
p89
sg18
S'197.1'
p90
sg20
S'201.3'
p91
sa(dp92
g3
S'175.1'
p93
sg5
I0
sg6
S'250.1'
p94
sg8
S'226.7'
p95
sg10
S'180.1'
p96
sg12
S'water'
p97
sg14
S'198.3'
p98
sg16
S'201.8'
p99
sg18
S'201.8'
p100
sg20
S'206.0'
p101
sa(dp102
g3
S'176.8'
p103
sg5
I0
sg6
S'251.2'
p104
sg8
S'251.2'
p105
sg10
S'181.8'
p106
sg12
S'water'
p107
sg14
S'200.0'
p108
sg16
S'203.5'
p109
sg18
S'203.5'
p110
sg20
S'209.8'
p111
sa(dp112
g3
S'178.3'
p113
sg5
I0
sg6
S'279.3'
p114
sg8
S'266.3'
p115
sg10
S'183.3'
p116
sg12
S'water'
p117
sg14
S'204.8'
p118
sg16
S'211.8'
p119
sg18
S'205.0'
p120
sg20
S'224.9'
p121
sa(dp122
g3
S'188.1'
p123
sg5
I0
sg6
S'272.1'
p124
sg8
S'261.6'
p125
sg10
S'193.1'
p126
sg12
S'water'
p127
sg14
S'211.3'
p128
sg16
S'216.5'
p129
sg18
S'214.8'
p130
sg20
S'220.2'
p131
sa(dp132
g3
S'252.0'
p133
sg5
I0
sg6
S'324.0'
p134
sg8
S'303.6'
p135
sg10
S'257.0'
p136
sg12
S'water'
p137
sg14
S'275.2'
p138
sg16
S'278.7'
p139
sg18
S'278.7'
p140
sg20
S'282.9'
p141
sa(dp142
g3
S'321.5'
p143
sg5
I0
sg6
S'417.5'
p144
sg8
S'373.1'
p145
sg10
S'326.5'
p146
sg12
S'water'
p147
sg14
S'344.7'
p148
sg16
S'348.2'
p149
sg18
S'348.2'
p150
sg20
S'352.4'
p151
sa(dp152
g3
S'378.3'
p153
sg5
I0
sg6
S'442.3'
p154
sg8
S'429.9'
p155
sg10
S'383.3'
p156
sg12
S'water'
p157
sg14
S'401.5'
p158
sg16
S'405.0'
p159
sg18
S'405.0'
p160
sg20
S'409.2'
p161
sa(dp162
g3
S'405.2'
p163
sg5
I0
sg6
S'515.2'
p164
sg8
S'456.8'
p165
sg10
S'410.2'
p166
sg12
S'water'
p167
sg14
S'428.4'
p168
sg16
S'431.9'
p169
sg18
S'431.9'
p170
sg20
S'436.1'
p171
sa(dp172
g3
S'408.4'
p173
sg5
I0
sg6
S'482.4'
p174
sg8
S'460.0'
p175
sg10
S'413.4'
p176
sg12
S'water'
p177
sg14
S'431.6'
p178
sg16
S'435.1'
p179
sg18
S'435.1'
p180
sg20
S'439.3'
p181
sa(dp182
g3
S'444.2'
p183
sg5
S'48.0'
p184
sg6
S'566.2'
p185
sg8
S'566.2'
p186
sg10
S'449.2'
p187
sg12
S'water'
p188
sg14
S'496.2'
p189
sg16
S'478.2'
p190
sg18
S'492.2'
p191
sg20
S'491.2'
p192
sa(dp193
g3
S'450.6'
p194
sg5
I0
sg6
S'532.6'
p195
sg8
S'502.2'
p196
sg10
S'455.6'
p197
sg12
S'water'
p198
sg14
S'473.8'
p199
sg16
S'477.3'
p200
sg18
S'477.3'
p201
sg20
S'481.5'
p202
sa(dp203
g3
S'458.8'
p204
sg5
I0
sg6
S'559.8'
p205
sg8
S'510.4'
p206
sg10
S'463.8'
p207
sg12
S'water'
p208
sg14
S'482.0'
p209
sg16
S'485.5'
p210
sg18
S'485.5'
p211
sg20
S'489.7'
p212
sa(dp213
g3
S'500.3'
p214
sg5
I0
sg6
S'571.3'
p215
sg8
S'551.9'
p216
sg10
S'505.3'
p217
sg12
S'water'
p218
sg14
S'523.5'
p219
sg16
S'527.0'
p220
sg18
S'527.0'
p221
sg20
S'531.2'
p222
sa(dp223
g3
S'565.7'
p224
sg5
I0
sg6
S'632.7'
p225
sg8
S'617.3'
p226
sg10
S'570.7'
p227
sg12
S'water'
p228
sg14
S'588.9'
p229
sg16
S'592.4'
p230
sg18
S'592.4'
p231
sg20
S'596.6'
p232
sa(dp233
g3
S'605.6'
p234
sg5
I0
sg6
S'682.6'
p235
sg8
S'657.2'
p236
sg10
S'610.6'
p237
sg12
S'water'
p238
sg14
S'628.9'
p239
sg16
S'632.4'
p240
sg18
S'632.4'
p241
sg20
S'636.5'
p242
sa(dp243
g3
S'613.3'
p244
sg5
I0
sg6
S'699.3'
p245
sg8
S'664.9'
p246
sg10
S'618.3'
p247
sg12
S'water'
p248
sg14
S'636.5'
p249
sg16
S'640.0'
p250
sg18
S'640.0'
p251
sg20
S'644.2'
p252
sa(dp253
g3
S'628.4'
p254
sg5
I0
sg6
S'742.4'
p255
sg8
S'680.0'
p256
sg10
S'633.4'
p257
sg12
S'water'
p258
sg14
S'651.6'
p259
sg16
S'655.1'
p260
sg18
S'655.1'
p261
sg20
S'659.3'
p262
sa(dp263
g3
S'638.0'
p264
sg5
I0
sg6
S'735.0'
p265
sg8
S'696.9'
p266
sg10
S'643.0'
p267
sg12
S'water'
p268
sg14
S'661.2'
p269
sg16
S'664.7'
p270
sg18
S'664.7'
p271
sg20
S'668.9'
p272
sa(dp273
g3
S'646.1'
p274
sg5
I0
sg6
S'724.1'
p275
sg8
S'704.5'
p276
sg10
S'651.1'
p277
sg12
S'water'
p278
sg14
S'669.3'
p279
sg16
S'672.8'
p280
sg18
S'672.8'
p281
sg20
S'677.0'
p282
sa(dp283
g3
S'654.7'
p284
sg5
I0
sg6
S'727.7'
p285
sg8
S'719.6'
p286
sg10
S'659.7'
p287
sg12
S'water'
p288
sg14
S'677.9'
p289
sg16
S'681.4'
p290
sg18
S'681.4'
p291
sg20
S'685.6'
p292
sa(dp293
g3
S'681.8'
p294
sg5
I0
sg6
S'783.8'
p295
sg8
S'736.5'
p296
sg10
S'686.8'
p297
sg12
S'water'
p298
sg14
S'705.0'
p299
sg16
S'708.5'
p300
sg18
S'708.5'
p301
sg20
S'712.7'
p302
sa(dp303
g3
S'696.3'
p304
sg5
I0
sg6
S'760.3'
p305
sg8
S'747.9'
p306
sg10
S'701.3'
p307
sg12
S'water'
p308
sg14
S'719.5'
p309
sg16
S'723.0'
p310
sg18
S'723.0'
p311
sg20
S'727.2'
p312
sa(dp313
g3
S'723.0'
p314
sg5
I0
sg6
S'801.0'
p315
sg8
S'774.6'
p316
sg10
S'728.0'
p317
sg12
S'water'
p318
sg14
S'746.2'
p319
sg16
S'749.7'
p320
sg18
S'749.7'
p321
sg20
S'753.9'
p322
sa(dp323
g3
S'796.8'
p324
sg5
I0
sg6
S'915.8'
p325
sg8
S'848.4'
p326
sg10
S'801.8'
p327
sg12
S'water'
p328
sg14
S'820.0'
p329
sg16
S'823.5'
p330
sg18
S'823.5'
p331
sg20
S'827.6'
p332
sa(dp333
g3
S'868.4'
p334
sg5
I0
sg6
S'958.4'
p335
sg8
S'920.0'
p336
sg10
S'873.4'
p337
sg12
S'water'
p338
sg14
S'891.6'
p339
sg16
S'895.1'
p340
sg18
S'895.1'
p341
sg20
S'899.3'
p342
sa(dp343
g3
S'903.2'
p344
sg5
I0
sg6
S'980.2'
p345
sg8
S'954.8'
p346
sg10
S'908.2'
p347
sg12
S'water'
p348
sg14
S'926.4'
p349
sg16
S'929.9'
p350
sg18
S'929.9'
p351
sg20
S'934.1'
p352
sa(dp353
g3
S'978.2'
p354
sg5
I0
sg6
S'1082.2'
p355
sg8
S'1029.8'
p356
sg10
S'983.2'
p357
sg12
S'water'
p358
sg14
S'1001.4'
p359
sg16
S'1004.9'
p360
sg18
S'1004.9'
p361
sg20
S'1009.1'
p362
sa(dp363
g3
S'993.1'
p364
sg5
S'16.0'
p365
sg6
S'1071.2'
p366
sg8
S'1071.2'
p367
sg10
S'998.1'
p368
sg12
S'water'
p369
sg14
S'1029.2'
p370
sg16
S'1023.1'
p371
sg18
S'1023.1'
p372
sg20
S'1029.2'
p373
sa(dp374
g3
S'1015.3'
p375
sg5
I0
sg6
S'1098.3'
p376
sg8
S'1066.9'
p377
sg10
S'1020.3'
p378
sg12
S'water'
p379
sg14
S'1038.5'
p380
sg16
S'1042.0'
p381
sg18
S'1042.0'
p382
sg20
S'1046.2'
p383
sa(dp384
g3
S'1050.3'
p385
sg5
I0
sg6
S'1116.3'
p386
sg8
S'1101.9'
p387
sg10
S'1055.3'
p388
sg12
S'water'
p389
sg14
S'1073.5'
p390
sg16
S'1077.0'
p391
sg18
S'1077.0'
p392
sg20
S'1081.2'
p393
sa(dp394
g3
S'1050.8'
p395
sg5
S'65.1'
p396
sg6
S'1176.9'
p397
sg8
S'1176.9'
p398
sg10
S'1055.8'
p399
sg12
S'water'
p400
sg14
S'1102.8'
p401
sg16
S'1084.8'
p402
sg18
S'1098.8'
p403
sg20
S'1097.8'
p404
sa(dp405
g3
S'1074.5'
p406
sg5
I0
sg6
S'1144.5'
p407
sg8
S'1126.1'
p408
sg10
S'1079.5'
p409
sg12
S'water'
p410
sg14
S'1097.7'
p411
sg16
S'1101.2'
p412
sg18
S'1101.2'
p413
sg20
S'1105.4'
p414
saF86.362499999999997
F43.033333333333331
I3
t.