((lp1
(dp2
S'Arrival'
p3
S'43.5'
p4
sS'Late'
p5
I0
sS'Depart'
p6
S'155.5'
p7
sS'POWER'
p8
S'95.1'
p9
sS'LANDING'
p10
S'48.5'
p11
sS'WATER'
p12
S'water'
p13
sS'BAGGAGE'
p14
S'66.7'
p15
sS'CATER'
p16
S'70.2'
p17
sS'CLEAN'
p18
S'70.2'
p19
sS'FUEL'
p20
S'74.4'
p21
sa(dp22
g3
S'44.7'
p23
sg5
I0
sg6
S'137.7'
p24
sg8
S'96.3'
p25
sg10
S'49.7'
p26
sg12
S'water'
p27
sg14
S'67.9'
p28
sg16
S'71.4'
p29
sg18
S'71.4'
p30
sg20
S'75.6'
p31
sa(dp32
g3
S'64.6'
p33
sg5
I0
sg6
S'138.6'
p34
sg8
S'134.7'
p35
sg10
S'69.6'
p36
sg12
S'water'
p37
sg14
S'87.8'
p38
sg16
S'91.3'
p39
sg18
S'91.3'
p40
sg20
S'95.5'
p41
sa(dp42
g3
S'72.6'
p43
sg5
S'17.7'
p44
sg6
S'174.3'
p45
sg8
S'174.3'
p46
sg10
S'77.6'
p47
sg12
S'water'
p48
sg14
S'95.8'
p49
sg16
S'99.3'
p50
sg18
S'99.3'
p51
sg20
S'103.5'
p52
sa(dp53
g3
S'75.7'
p54
sg5
I0
sg6
S'144.7'
p55
sg8
S'135.9'
p56
sg10
S'80.7'
p57
sg12
S'water'
p58
sg14
S'99.0'
p59
sg16
S'106.0'
p60
sg18
S'102.4'
p61
sg20
S'114.4'
p62
sa(dp63
g3
S'100.9'
p64
sg5
S'9.2'
p65
sg6
S'215.1'
p66
sg8
S'215.1'
p67
sg10
S'105.9'
p68
sg12
S'water'
p69
sg14
S'124.1'
p70
sg16
S'127.6'
p71
sg18
S'127.6'
p72
sg20
S'131.8'
p73
sa(dp74
g3
S'116.8'
p75
sg5
S'19.1'
p76
sg6
S'213.9'
p77
sg8
S'213.9'
p78
sg10
S'121.8'
p79
sg12
S'water'
p80
sg14
S'140.0'
p81
sg16
S'143.5'
p82
sg18
S'143.5'
p83
sg20
S'147.7'
p84
sa(dp85
g3
S'117.5'
p86
sg5
I0
sg6
S'194.5'
p87
sg8
S'175.5'
p88
sg10
S'122.5'
p89
sg12
S'water'
p90
sg14
S'140.7'
p91
sg16
S'144.2'
p92
sg18
S'144.2'
p93
sg20
S'150.7'
p94
sa(dp95
g3
S'153.4'
p96
sg5
S'21.1'
p97
sg6
S'253.5'
p98
sg8
S'253.5'
p99
sg10
S'158.4'
p100
sg12
S'water'
p101
sg14
S'176.6'
p102
sg16
S'180.1'
p103
sg18
S'180.1'
p104
sg20
S'184.3'
p105
sa(dp106
g3
S'221.0'
p107
sg5
I0
sg6
S'314.0'
p108
sg8
S'272.6'
p109
sg10
S'226.0'
p110
sg12
S'water'
p111
sg14
S'244.2'
p112
sg16
S'247.7'
p113
sg18
S'247.7'
p114
sg20
S'251.9'
p115
sa(dp116
g3
S'255.4'
p117
sg5
S'42.0'
p118
sg6
S'377.4'
p119
sg8
S'377.4'
p120
sg10
S'260.4'
p121
sg12
S'water'
p122
sg14
S'307.4'
p123
sg16
S'289.4'
p124
sg18
S'303.4'
p125
sg20
S'302.4'
p126
sa(dp127
g3
S'269.8'
p128
sg5
I0
sg6
S'387.8'
p129
sg8
S'321.4'
p130
sg10
S'274.8'
p131
sg12
S'water'
p132
sg14
S'293.0'
p133
sg16
S'296.5'
p134
sg18
S'296.5'
p135
sg20
S'300.7'
p136
sa(dp137
g3
S'292.6'
p138
sg5
I0
sg6
S'410.6'
p139
sg8
S'361.0'
p140
sg10
S'297.6'
p141
sg12
S'water'
p142
sg14
S'315.8'
p143
sg16
S'319.3'
p144
sg18
S'319.3'
p145
sg20
S'323.5'
p146
sa(dp147
g3
S'327.2'
p148
sg5
S'3.3'
p149
sg6
S'400.6'
p150
sg8
S'400.6'
p151
sg10
S'332.2'
p152
sg12
S'water'
p153
sg14
S'350.4'
p154
sg16
S'353.9'
p155
sg18
S'353.9'
p156
sg20
S'358.1'
p157
sa(dp158
g3
S'366.0'
p159
sg5
I0
sg6
S'447.0'
p160
sg8
S'417.6'
p161
sg10
S'371.0'
p162
sg12
S'water'
p163
sg14
S'389.2'
p164
sg16
S'392.7'
p165
sg18
S'392.7'
p166
sg20
S'396.9'
p167
sa(dp168
g3
S'422.0'
p169
sg5
I0
sg6
S'519.0'
p170
sg8
S'473.6'
p171
sg10
S'427.0'
p172
sg12
S'water'
p173
sg14
S'445.2'
p174
sg16
S'448.7'
p175
sg18
S'448.7'
p176
sg20
S'452.9'
p177
sa(dp178
g3
S'435.2'
p179
sg5
I0
sg6
S'553.2'
p180
sg8
S'486.8'
p181
sg10
S'440.2'
p182
sg12
S'water'
p183
sg14
S'458.4'
p184
sg16
S'461.9'
p185
sg18
S'461.9'
p186
sg20
S'466.1'
p187
sa(dp188
g3
S'441.5'
p189
sg5
I0
sg6
S'513.5'
p190
sg8
S'513.2'
p191
sg10
S'446.5'
p192
sg12
S'water'
p193
sg14
S'464.7'
p194
sg16
S'468.2'
p195
sg18
S'468.2'
p196
sg20
S'472.4'
p197
sa(dp198
g3
S'524.0'
p199
sg5
I0
sg6
S'602.0'
p200
sg8
S'575.6'
p201
sg10
S'529.0'
p202
sg12
S'water'
p203
sg14
S'547.2'
p204
sg16
S'550.7'
p205
sg18
S'550.7'
p206
sg20
S'554.9'
p207
sa(dp208
g3
S'532.4'
p209
sg5
I0
sg6
S'616.4'
p210
sg8
S'584.0'
p211
sg10
S'537.4'
p212
sg12
S'water'
p213
sg14
S'555.6'
p214
sg16
S'559.1'
p215
sg18
S'559.1'
p216
sg20
S'563.3'
p217
sa(dp218
g3
S'559.1'
p219
sg5
I0
sg6
S'656.1'
p220
sg8
S'615.2'
p221
sg10
S'564.1'
p222
sg12
S'water'
p223
sg14
S'582.4'
p224
sg16
S'585.9'
p225
sg18
S'585.9'
p226
sg20
S'590.0'
p227
sa(dp228
g3
S'594.3'
p229
sg5
I0
sg6
S'683.3'
p230
sg8
S'645.9'
p231
sg10
S'599.3'
p232
sg12
S'water'
p233
sg14
S'617.5'
p234
sg16
S'621.0'
p235
sg18
S'621.0'
p236
sg20
S'625.2'
p237
sa(dp238
g3
S'600.9'
p239
sg5
I0
sg6
S'670.9'
p240
sg8
S'654.8'
p241
sg10
S'605.9'
p242
sg12
S'water'
p243
sg14
S'624.1'
p244
sg16
S'627.6'
p245
sg18
S'627.6'
p246
sg20
S'631.8'
p247
sa(dp248
g3
S'616.9'
p249
sg5
I0
sg6
S'695.9'
p250
sg8
S'685.5'
p251
sg10
S'621.9'
p252
sg12
S'water'
p253
sg14
S'640.1'
p254
sg16
S'643.6'
p255
sg18
S'643.6'
p256
sg20
S'647.8'
p257
sa(dp258
g3
S'634.5'
p259
sg5
I0
sg6
S'730.5'
p260
sg8
S'694.4'
p261
sg10
S'639.5'
p262
sg12
S'water'
p263
sg14
S'657.7'
p264
sg16
S'661.2'
p265
sg18
S'661.2'
p266
sg20
S'665.4'
p267
sa(dp268
g3
S'645.6'
p269
sg5
I0
sg6
S'743.6'
p270
sg8
S'725.1'
p271
sg10
S'650.6'
p272
sg12
S'water'
p273
sg14
S'668.8'
p274
sg16
S'672.3'
p275
sg18
S'672.3'
p276
sg20
S'676.5'
p277
sa(dp278
g3
S'652.1'
p279
sg5
I0
sg6
S'764.1'
p280
sg8
S'734.0'
p281
sg10
S'657.1'
p282
sg12
S'water'
p283
sg14
S'675.3'
p284
sg16
S'678.8'
p285
sg18
S'678.8'
p286
sg20
S'684.3'
p287
sa(dp288
g3
S'694.5'
p289
sg5
I0
sg6
S'777.5'
p290
sg8
S'764.7'
p291
sg10
S'699.5'
p292
sg12
S'water'
p293
sg14
S'717.7'
p294
sg16
S'721.2'
p295
sg18
S'721.2'
p296
sg20
S'725.4'
p297
sa(dp298
g3
S'722.3'
p299
sg5
I0
sg6
S'825.3'
p300
sg8
S'773.9'
p301
sg10
S'727.3'
p302
sg12
S'water'
p303
sg14
S'745.5'
p304
sg16
S'749.0'
p305
sg18
S'749.0'
p306
sg20
S'753.2'
p307
sa(dp308
g3
S'729.8'
p309
sg5
I0
sg6
S'849.8'
p310
sg8
S'804.3'
p311
sg10
S'734.8'
p312
sg12
S'water'
p313
sg14
S'753.0'
p314
sg16
S'756.5'
p315
sg18
S'756.5'
p316
sg20
S'760.7'
p317
sa(dp318
g3
S'771.7'
p319
sg5
I0
sg6
S'868.7'
p320
sg8
S'823.3'
p321
sg10
S'776.7'
p322
sg12
S'water'
p323
sg14
S'794.9'
p324
sg16
S'798.4'
p325
sg18
S'798.4'
p326
sg20
S'802.6'
p327
sa(dp328
g3
S'773.6'
p329
sg5
I0
sg6
S'853.6'
p330
sg8
S'843.9'
p331
sg10
S'778.6'
p332
sg12
S'water'
p333
sg14
S'796.8'
p334
sg16
S'800.3'
p335
sg18
S'800.3'
p336
sg20
S'804.5'
p337
sa(dp338
g3
S'838.0'
p339
sg5
I0
sg6
S'917.0'
p340
sg8
S'889.6'
p341
sg10
S'843.0'
p342
sg12
S'water'
p343
sg14
S'861.2'
p344
sg16
S'864.7'
p345
sg18
S'864.7'
p346
sg20
S'868.9'
p347
sa(dp348
g3
S'851.7'
p349
sg5
I0
sg6
S'935.7'
p350
sg8
S'929.7'
p351
sg10
S'856.7'
p352
sg12
S'water'
p353
sg14
S'887.7'
p354
sg16
S'881.7'
p355
sg18
S'881.7'
p356
sg20
S'887.7'
p357
sa(dp358
g3
S'861.7'
p359
sg5
I0
sg6
S'943.7'
p360
sg8
S'929.2'
p361
sg10
S'866.7'
p362
sg12
S'water'
p363
sg14
S'884.9'
p364
sg16
S'888.4'
p365
sg18
S'888.4'
p366
sg20
S'892.6'
p367
sa(dp368
g3
S'925.8'
p369
sg5
I0
sg6
S'1007.8'
p370
sg8
S'977.4'
p371
sg10
S'930.8'
p372
sg12
S'water'
p373
sg14
S'949.0'
p374
sg16
S'952.5'
p375
sg18
S'952.5'
p376
sg20
S'956.7'
p377
sa(dp378
g3
S'946.6'
p379
sg5
I0
sg6
S'1019.6'
p380
sg8
S'998.2'
p381
sg10
S'951.6'
p382
sg12
S'water'
p383
sg14
S'969.8'
p384
sg16
S'973.3'
p385
sg18
S'973.3'
p386
sg20
S'977.5'
p387
sa(dp388
g3
S'967.1'
p389
sg5
I0
sg6
S'1081.1'
p390
sg8
S'1018.7'
p391
sg10
S'972.1'
p392
sg12
S'water'
p393
sg14
S'990.3'
p394
sg16
S'993.8'
p395
sg18
S'993.8'
p396
sg20
S'998.0'
p397
sa(dp398
g3
S'1001.5'
p399
sg5
I0
sg6
S'1074.5'
p400
sg8
S'1053.1'
p401
sg10
S'1006.5'
p402
sg12
S'water'
p403
sg14
S'1024.7'
p404
sg16
S'1028.2'
p405
sg18
S'1028.2'
p406
sg20
S'1032.4'
p407
sa(dp408
g3
S'1038.3'
p409
sg5
I0
sg6
S'1111.3'
p410
sg8
S'1089.9'
p411
sg10
S'1043.3'
p412
sg12
S'water'
p413
sg14
S'1061.5'
p414
sg16
S'1065.0'
p415
sg18
S'1065.0'
p416
sg20
S'1069.2'
p417
saF18.733333333333331
F91.912499999999994
I6
t.