((lp1
(dp2
S'Arrival'
p3
S'21.1'
p4
sS'Late'
p5
I0
sS'Depart'
p6
S'98.1'
p7
sS'POWER'
p8
S'72.7'
p9
sS'LANDING'
p10
S'26.1'
p11
sS'WATER'
p12
S'water'
p13
sS'BAGGAGE'
p14
S'44.3'
p15
sS'CATER'
p16
S'47.8'
p17
sS'CLEAN'
p18
S'47.8'
p19
sS'FUEL'
p20
S'52.0'
p21
sa(dp22
g3
S'31.5'
p23
sg5
I0
sg6
S'120.5'
p24
sg8
S'83.1'
p25
sg10
S'36.5'
p26
sg12
S'water'
p27
sg14
S'54.7'
p28
sg16
S'58.2'
p29
sg18
S'58.2'
p30
sg20
S'62.4'
p31
sa(dp32
g3
S'55.2'
p33
sg5
I0
sg6
S'163.2'
p34
sg8
S'112.3'
p35
sg10
S'60.2'
p36
sg12
S'water'
p37
sg14
S'78.4'
p38
sg16
S'81.9'
p39
sg18
S'81.9'
p40
sg20
S'86.1'
p41
sa(dp42
g3
S'104.0'
p43
sg5
I0
sg6
S'195.0'
p44
sg8
S'155.6'
p45
sg10
S'109.0'
p46
sg12
S'water'
p47
sg14
S'127.2'
p48
sg16
S'130.7'
p49
sg18
S'130.7'
p50
sg20
S'134.9'
p51
sa(dp52
g3
S'111.6'
p53
sg5
I0
sg6
S'203.6'
p54
sg8
S'163.2'
p55
sg10
S'116.6'
p56
sg12
S'water'
p57
sg14
S'134.8'
p58
sg16
S'138.3'
p59
sg18
S'138.3'
p60
sg20
S'142.5'
p61
sa(dp62
g3
S'116.8'
p63
sg5
S'82.8'
p64
sg6
S'265.6'
p65
sg8
S'265.6'
p66
sg10
S'121.8'
p67
sg12
S'water'
p68
sg14
S'168.8'
p69
sg16
S'152.7'
p70
sg18
S'164.8'
p71
sg20
S'169.9'
p72
sa(dp73
g3
S'118.1'
p74
sg5
S'9.7'
p75
sg6
S'202.8'
p76
sg8
S'202.8'
p77
sg10
S'123.1'
p78
sg12
S'water'
p79
sg14
S'146.0'
p80
sg16
S'153.0'
p81
sg18
S'145.3'
p82
sg20
S'161.4'
p83
sa(dp84
g3
S'142.4'
p85
sg5
S'59.6'
p86
sg6
S'282.0'
p87
sg8
S'282.0'
p88
sg10
S'147.4'
p89
sg12
S'water'
p90
sg14
S'165.6'
p91
sg16
S'169.1'
p92
sg18
S'169.1'
p93
sg20
S'188.8'
p94
sa(dp95
g3
S'147.0'
p96
sg5
S'25.4'
p97
sg6
S'242.4'
p98
sg8
S'242.4'
p99
sg10
S'152.0'
p100
sg12
S'water'
p101
sg14
S'176.8'
p102
sg16
S'173.7'
p103
sg18
S'173.7'
p104
sg20
S'180.3'
p105
sa(dp106
g3
S'179.0'
p107
sg5
S'31.2'
p108
sg6
S'305.2'
p109
sg8
S'305.2'
p110
sg10
S'184.0'
p111
sg12
S'water'
p112
sg14
S'202.2'
p113
sg16
S'205.7'
p114
sg18
S'205.7'
p115
sg20
S'209.9'
p116
sa(dp117
g3
S'263.2'
p118
sg5
I0
sg6
S'345.2'
p119
sg8
S'321.6'
p120
sg10
S'268.2'
p121
sg12
S'water'
p122
sg14
S'286.4'
p123
sg16
S'289.9'
p124
sg18
S'289.9'
p125
sg20
S'294.1'
p126
sa(dp127
g3
S'285.5'
p128
sg5
I0
sg6
S'390.5'
p129
sg8
S'344.8'
p130
sg10
S'290.5'
p131
sg12
S'water'
p132
sg14
S'308.7'
p133
sg16
S'312.2'
p134
sg18
S'312.2'
p135
sg20
S'316.4'
p136
sa(dp137
g3
S'315.9'
p138
sg5
I0
sg6
S'421.9'
p139
sg8
S'367.5'
p140
sg10
S'320.9'
p141
sg12
S'water'
p142
sg14
S'339.1'
p143
sg16
S'342.6'
p144
sg18
S'342.6'
p145
sg20
S'346.8'
p146
sa(dp147
g3
S'336.2'
p148
sg5
I0
sg6
S'426.2'
p149
sg8
S'387.8'
p150
sg10
S'341.2'
p151
sg12
S'water'
p152
sg14
S'359.4'
p153
sg16
S'362.9'
p154
sg18
S'362.9'
p155
sg20
S'367.1'
p156
sa(dp157
g3
S'349.6'
p158
sg5
I0
sg6
S'448.6'
p159
sg8
S'407.1'
p160
sg10
S'354.6'
p161
sg12
S'water'
p162
sg14
S'372.8'
p163
sg16
S'376.3'
p164
sg18
S'376.3'
p165
sg20
S'380.5'
p166
sa(dp167
g3
S'362.9'
p168
sg5
I0
sg6
S'459.9'
p169
sg8
S'427.4'
p170
sg10
S'367.9'
p171
sg12
S'water'
p172
sg14
S'386.1'
p173
sg16
S'389.6'
p174
sg18
S'389.6'
p175
sg20
S'393.8'
p176
sa(dp177
g3
S'402.6'
p178
sg5
I0
sg6
S'476.6'
p179
sg8
S'454.2'
p180
sg10
S'407.6'
p181
sg12
S'water'
p182
sg14
S'425.8'
p183
sg16
S'429.3'
p184
sg18
S'429.3'
p185
sg20
S'433.5'
p186
sa(dp187
g3
S'453.9'
p188
sg5
S'36.0'
p189
sg6
S'576.0'
p190
sg8
S'576.0'
p191
sg10
S'458.9'
p192
sg12
S'water'
p193
sg14
S'505.9'
p194
sg16
S'487.9'
p195
sg18
S'501.9'
p196
sg20
S'500.9'
p197
sa(dp198
g3
S'477.1'
p199
sg5
I0
sg6
S'593.1'
p200
sg8
S'528.7'
p201
sg10
S'482.1'
p202
sg12
S'water'
p203
sg14
S'500.3'
p204
sg16
S'503.8'
p205
sg18
S'503.8'
p206
sg20
S'508.0'
p207
sa(dp208
g3
S'481.0'
p209
sg5
I0
sg6
S'579.0'
p210
sg8
S'568.3'
p211
sg10
S'486.0'
p212
sg12
S'water'
p213
sg14
S'511.5'
p214
sg16
S'507.7'
p215
sg18
S'507.7'
p216
sg20
S'519.9'
p217
sa(dp218
g3
S'508.2'
p219
sg5
S'2.7'
p220
sg6
S'607.9'
p221
sg8
S'607.9'
p222
sg10
S'513.2'
p223
sg12
S'water'
p224
sg14
S'531.4'
p225
sg16
S'534.9'
p226
sg18
S'534.9'
p227
sg20
S'539.1'
p228
sa(dp229
g3
S'546.9'
p230
sg5
I0
sg6
S'660.9'
p231
sg8
S'615.6'
p232
sg10
S'551.9'
p233
sg12
S'water'
p234
sg14
S'570.1'
p235
sg16
S'573.6'
p236
sg18
S'573.6'
p237
sg20
S'577.8'
p238
sa(dp239
g3
S'589.1'
p240
sg5
I0
sg6
S'709.1'
p241
sg8
S'647.5'
p242
sg10
S'594.1'
p243
sg12
S'water'
p244
sg14
S'612.3'
p245
sg16
S'615.8'
p246
sg18
S'615.8'
p247
sg20
S'620.0'
p248
sa(dp249
g3
S'612.5'
p250
sg5
I0
sg6
S'708.5'
p251
sg8
S'664.1'
p252
sg10
S'617.5'
p253
sg12
S'water'
p254
sg14
S'635.7'
p255
sg16
S'639.2'
p256
sg18
S'639.2'
p257
sg20
S'643.4'
p258
sa(dp259
g3
S'634.7'
p260
sg5
S'10.8'
p261
sg6
S'713.5'
p262
sg8
S'713.5'
p263
sg10
S'639.7'
p264
sg12
S'water'
p265
sg14
S'670.7'
p266
sg16
S'664.7'
p267
sg18
S'664.7'
p268
sg20
S'670.7'
p269
sa(dp270
g3
S'696.7'
p271
sg5
I0
sg6
S'771.7'
p272
sg8
S'748.3'
p273
sg10
S'701.7'
p274
sg12
S'water'
p275
sg14
S'719.9'
p276
sg16
S'723.4'
p277
sg18
S'723.4'
p278
sg20
S'727.6'
p279
sa(dp280
g3
S'699.0'
p281
sg5
I0
sg6
S'782.0'
p282
sg8
S'753.1'
p283
sg10
S'704.0'
p284
sg12
S'water'
p285
sg14
S'722.2'
p286
sg16
S'725.7'
p287
sg18
S'725.7'
p288
sg20
S'729.9'
p289
sa(dp290
g3
S'720.9'
p291
sg5
I0
sg6
S'810.9'
p292
sg8
S'787.9'
p293
sg10
S'725.9'
p294
sg12
S'water'
p295
sg14
S'744.1'
p296
sg16
S'747.6'
p297
sg18
S'747.6'
p298
sg20
S'751.8'
p299
sa(dp300
g3
S'724.4'
p301
sg5
S'41.7'
p302
sg6
S'863.1'
p303
sg8
S'863.1'
p304
sg10
S'729.4'
p305
sg12
S'water'
p306
sg14
S'776.4'
p307
sg16
S'758.4'
p308
sg18
S'772.4'
p309
sg20
S'771.4'
p310
sa(dp311
g3
S'824.3'
p312
sg5
I0
sg6
S'895.3'
p313
sg8
S'875.9'
p314
sg10
S'829.3'
p315
sg12
S'water'
p316
sg14
S'847.5'
p317
sg16
S'851.0'
p318
sg18
S'851.0'
p319
sg20
S'855.2'
p320
sa(dp321
g3
S'915.1'
p322
sg5
I0
sg6
S'1009.1'
p323
sg8
S'966.7'
p324
sg10
S'920.1'
p325
sg12
S'water'
p326
sg14
S'938.3'
p327
sg16
S'941.8'
p328
sg18
S'941.8'
p329
sg20
S'946.0'
p330
sa(dp331
g3
S'926.0'
p332
sg5
I0
sg6
S'1009.0'
p333
sg8
S'977.6'
p334
sg10
S'931.0'
p335
sg12
S'water'
p336
sg14
S'949.2'
p337
sg16
S'952.7'
p338
sg18
S'952.7'
p339
sg20
S'956.9'
p340
sa(dp341
g3
S'937.5'
p342
sg5
I0
sg6
S'1057.5'
p343
sg8
S'1006.3'
p344
sg10
S'942.5'
p345
sg12
S'water'
p346
sg14
S'960.7'
p347
sg16
S'964.2'
p348
sg18
S'964.2'
p349
sg20
S'968.4'
p350
sa(dp351
g3
S'1001.6'
p352
sg5
I0
sg6
S'1082.6'
p353
sg8
S'1053.2'
p354
sg10
S'1006.6'
p355
sg12
S'water'
p356
sg14
S'1024.8'
p357
sg16
S'1028.3'
p358
sg18
S'1028.3'
p359
sg20
S'1032.5'
p360
sa(dp361
g3
S'1029.9'
p362
sg5
I0
sg6
S'1142.9'
p363
sg8
S'1081.5'
p364
sg10
S'1034.9'
p365
sg12
S'water'
p366
sg14
S'1053.1'
p367
sg16
S'1056.6'
p368
sg18
S'1056.6'
p369
sg20
S'1060.8'
p370
sa(dp371
g3
S'1035.3'
p372
sg5
I0
sg6
S'1138.3'
p373
sg8
S'1092.8'
p374
sg10
S'1040.3'
p375
sg12
S'water'
p376
sg14
S'1058.5'
p377
sg16
S'1062.0'
p378
sg18
S'1062.0'
p379
sg20
S'1066.2'
p380
sa(dp381
g3
S'1048.3'
p382
sg5
I0
sg6
S'1150.3'
p383
sg8
S'1132.4'
p384
sg10
S'1053.3'
p385
sg12
S'water'
p386
sg14
S'1071.5'
p387
sg16
S'1075.0'
p388
sg18
S'1075.0'
p389
sg20
S'1079.7'
p390
sa(dp391
g3
S'1051.0'
p392
sg5
I0
sg6
S'1128.0'
p393
sg8
S'1121.1'
p394
sg10
S'1056.0'
p395
sg12
S'water'
p396
sg14
S'1074.2'
p397
sg16
S'1077.7'
p398
sg18
S'1077.7'
p399
sg20
S'1085.1'
p400
sa(dp401
g3
S'1052.6'
p402
sg5
I0
sg6
S'1167.6'
p403
sg8
S'1160.7'
p404
sg10
S'1057.6'
p405
sg12
S'water'
p406
sg14
S'1082.8'
p407
sg16
S'1089.8'
p408
sg18
S'1082.0'
p409
sg20
S'1098.6'
p410
sa(dp411
g3
S'1067.9'
p412
sg5
I0
sg6
S'1183.9'
p413
sg8
S'1172.0'
p414
sg10
S'1072.9'
p415
sg12
S'water'
p416
sg14
S'1091.1'
p417
sg16
S'1094.6'
p418
sg18
S'1094.6'
p419
sg20
S'1104.0'
p420
saF100.27500000000001
F33.322222222222223
I9
t.