((lp1
(dp2
S'Arrival'
p3
S'25.3'
p4
sS'Late'
p5
I0
sS'Depart'
p6
S'99.3'
p7
sS'POWER'
p8
S'76.9'
p9
sS'LANDING'
p10
S'30.3'
p11
sS'WATER'
p12
S'water'
p13
sS'BAGGAGE'
p14
S'48.5'
p15
sS'CATER'
p16
S'52.0'
p17
sS'CLEAN'
p18
S'52.0'
p19
sS'FUEL'
p20
S'56.2'
p21
sa(dp22
g3
S'27.6'
p23
sg5
S'19.0'
p24
sg6
S'149.6'
p25
sg8
S'149.6'
p26
sg10
S'32.6'
p27
sg12
S'water'
p28
sg14
S'79.6'
p29
sg16
S'61.6'
p30
sg18
S'75.6'
p31
sg20
S'74.6'
p32
sa(dp33
g3
S'108.0'
p34
sg5
I0
sg6
S'186.0'
p35
sg8
S'159.6'
p36
sg10
S'113.0'
p37
sg12
S'water'
p38
sg14
S'131.2'
p39
sg16
S'134.7'
p40
sg18
S'134.7'
p41
sg20
S'138.9'
p42
sa(dp43
g3
S'123.0'
p44
sg5
I0
sg6
S'218.0'
p45
sg8
S'189.2'
p46
sg10
S'128.0'
p47
sg12
S'water'
p48
sg14
S'146.2'
p49
sg16
S'149.7'
p50
sg18
S'149.7'
p51
sg20
S'153.9'
p52
sa(dp53
g3
S'149.3'
p54
sg5
I0
sg6
S'240.3'
p55
sg8
S'200.9'
p56
sg10
S'154.3'
p57
sg12
S'water'
p58
sg14
S'172.5'
p59
sg16
S'176.0'
p60
sg18
S'176.0'
p61
sg20
S'180.2'
p62
sa(dp63
g3
S'198.1'
p64
sg5
I0
sg6
S'280.1'
p65
sg8
S'249.7'
p66
sg10
S'203.1'
p67
sg12
S'water'
p68
sg14
S'221.3'
p69
sg16
S'224.8'
p70
sg18
S'224.8'
p71
sg20
S'229.0'
p72
sa(dp73
g3
S'202.8'
p74
sg5
I0
sg6
S'303.8'
p75
sg8
S'254.4'
p76
sg10
S'207.8'
p77
sg12
S'water'
p78
sg14
S'226.0'
p79
sg16
S'229.5'
p80
sg18
S'229.5'
p81
sg20
S'233.7'
p82
sa(dp83
g3
S'248.9'
p84
sg5
I0
sg6
S'341.9'
p85
sg8
S'300.5'
p86
sg10
S'253.9'
p87
sg12
S'water'
p88
sg14
S'272.1'
p89
sg16
S'275.6'
p90
sg18
S'275.6'
p91
sg20
S'279.8'
p92
sa(dp93
g3
S'258.6'
p94
sg5
I0
sg6
S'324.6'
p95
sg8
S'310.2'
p96
sg10
S'263.6'
p97
sg12
S'water'
p98
sg14
S'281.8'
p99
sg16
S'285.3'
p100
sg18
S'285.3'
p101
sg20
S'289.5'
p102
sa(dp103
g3
S'261.2'
p104
sg5
I0
sg6
S'379.2'
p105
sg8
S'349.8'
p106
sg10
S'266.2'
p107
sg12
S'water'
p108
sg14
S'284.4'
p109
sg16
S'290.3'
p110
sg18
S'287.9'
p111
sg20
S'298.7'
p112
sa(dp113
g3
S'282.3'
p114
sg5
I0
sg6
S'352.3'
p115
sg8
S'340.1'
p116
sg10
S'287.3'
p117
sg12
S'water'
p118
sg14
S'305.5'
p119
sg16
S'309.0'
p120
sg18
S'309.0'
p121
sg20
S'313.2'
p122
sa(dp123
g3
S'356.2'
p124
sg5
I0
sg6
S'450.2'
p125
sg8
S'407.8'
p126
sg10
S'361.2'
p127
sg12
S'water'
p128
sg14
S'379.4'
p129
sg16
S'382.9'
p130
sg18
S'382.9'
p131
sg20
S'387.1'
p132
sa(dp133
g3
S'362.9'
p134
sg5
I0
sg6
S'471.9'
p135
sg8
S'414.5'
p136
sg10
S'367.9'
p137
sg12
S'water'
p138
sg14
S'386.1'
p139
sg16
S'389.6'
p140
sg18
S'389.6'
p141
sg20
S'393.8'
p142
sa(dp143
g3
S'370.3'
p144
sg5
I0
sg6
S'452.3'
p145
sg8
S'447.4'
p146
sg10
S'375.3'
p147
sg12
S'water'
p148
sg14
S'393.5'
p149
sg16
S'397.6'
p150
sg18
S'397.0'
p151
sg20
S'406.0'
p152
sa(dp153
g3
S'386.1'
p154
sg5
I0
sg6
S'478.1'
p155
sg8
S'454.1'
p156
sg10
S'391.1'
p157
sg12
S'water'
p158
sg14
S'409.3'
p159
sg16
S'412.8'
p160
sg18
S'412.8'
p161
sg20
S'417.0'
p162
sa(dp163
g3
S'390.1'
p164
sg5
I0
sg6
S'508.1'
p165
sg8
S'487.0'
p166
sg10
S'395.1'
p167
sg12
S'water'
p168
sg14
S'413.3'
p169
sg16
S'416.8'
p170
sg18
S'416.8'
p171
sg20
S'424.9'
p172
sa(dp173
g3
S'504.8'
p174
sg5
I0
sg6
S'577.8'
p175
sg8
S'556.4'
p176
sg10
S'509.8'
p177
sg12
S'water'
p178
sg14
S'528.0'
p179
sg16
S'531.5'
p180
sg18
S'531.5'
p181
sg20
S'535.7'
p182
sa(dp183
g3
S'548.2'
p184
sg5
I0
sg6
S'628.2'
p185
sg8
S'599.8'
p186
sg10
S'553.2'
p187
sg12
S'water'
p188
sg14
S'571.4'
p189
sg16
S'574.9'
p190
sg18
S'574.9'
p191
sg20
S'579.1'
p192
sa(dp193
g3
S'551.6'
p194
sg5
I0
sg6
S'630.6'
p195
sg8
S'603.2'
p196
sg10
S'556.6'
p197
sg12
S'water'
p198
sg14
S'574.8'
p199
sg16
S'578.3'
p200
sg18
S'578.3'
p201
sg20
S'582.5'
p202
sa(dp203
g3
S'617.8'
p204
sg5
I0
sg6
S'679.8'
p205
sg8
S'669.4'
p206
sg10
S'622.8'
p207
sg12
S'water'
p208
sg14
S'641.0'
p209
sg16
S'644.5'
p210
sg18
S'644.5'
p211
sg20
S'648.7'
p212
sa(dp213
g3
S'631.0'
p214
sg5
I0
sg6
S'709.0'
p215
sg8
S'682.6'
p216
sg10
S'636.0'
p217
sg12
S'water'
p218
sg14
S'654.2'
p219
sg16
S'657.8'
p220
sg18
S'657.8'
p221
sg20
S'661.9'
p222
sa(dp223
g3
S'644.9'
p224
sg5
S'4.1'
p225
sg6
S'709.0'
p226
sg8
S'709.0'
p227
sg10
S'649.9'
p228
sg12
S'water'
p229
sg14
S'668.1'
p230
sg16
S'671.6'
p231
sg18
S'671.6'
p232
sg20
S'675.8'
p233
sa(dp234
g3
S'670.2'
p235
sg5
I0
sg6
S'780.2'
p236
sg8
S'722.2'
p237
sg10
S'675.2'
p238
sg12
S'water'
p239
sg14
S'693.4'
p240
sg16
S'696.9'
p241
sg18
S'696.9'
p242
sg20
S'701.1'
p243
sa(dp244
g3
S'796.7'
p245
sg5
I0
sg6
S'880.7'
p246
sg8
S'848.3'
p247
sg10
S'801.7'
p248
sg12
S'water'
p249
sg14
S'819.9'
p250
sg16
S'823.4'
p251
sg18
S'823.4'
p252
sg20
S'827.6'
p253
sa(dp254
g3
S'811.1'
p255
sg5
I0
sg6
S'928.1'
p256
sg8
S'862.7'
p257
sg10
S'816.1'
p258
sg12
S'water'
p259
sg14
S'834.3'
p260
sg16
S'837.8'
p261
sg18
S'837.8'
p262
sg20
S'842.0'
p263
sa(dp264
g3
S'847.8'
p265
sg5
I0
sg6
S'939.8'
p266
sg8
S'899.4'
p267
sg10
S'852.8'
p268
sg12
S'water'
p269
sg14
S'871.0'
p270
sg16
S'874.5'
p271
sg18
S'874.5'
p272
sg20
S'878.7'
p273
sa(dp274
g3
S'871.4'
p275
sg5
I0
sg6
S'971.4'
p276
sg8
S'923.0'
p277
sg10
S'876.4'
p278
sg12
S'water'
p279
sg14
S'894.6'
p280
sg16
S'898.1'
p281
sg18
S'898.1'
p282
sg20
S'902.3'
p283
sa(dp284
g3
S'877.3'
p285
sg5
I0
sg6
S'988.3'
p286
sg8
S'939.0'
p287
sg10
S'882.3'
p288
sg12
S'water'
p289
sg14
S'900.5'
p290
sg16
S'904.0'
p291
sg18
S'904.0'
p292
sg20
S'908.2'
p293
sa(dp294
g3
S'894.8'
p295
sg5
S'3.7'
p296
sg6
S'962.6'
p297
sg8
S'962.6'
p298
sg10
S'899.8'
p299
sg12
S'water'
p300
sg14
S'918.0'
p301
sg16
S'921.5'
p302
sg18
S'921.5'
p303
sg20
S'925.7'
p304
sa(dp305
g3
S'901.0'
p306
sg5
S'24.8'
p307
sg6
S'1041.8'
p308
sg8
S'1041.8'
p309
sg10
S'906.0'
p310
sg12
S'water'
p311
sg14
S'924.2'
p312
sg16
S'927.7'
p313
sg18
S'927.7'
p314
sg20
S'931.9'
p315
sa(dp316
g3
S'915.2'
p317
sg5
S'3.4'
p318
sg6
S'978.6'
p319
sg8
S'978.6'
p320
sg10
S'920.2'
p321
sg12
S'water'
p322
sg14
S'938.4'
p323
sg16
S'941.9'
p324
sg18
S'941.9'
p325
sg20
S'946.1'
p326
sa(dp327
g3
S'930.7'
p328
sg5
S'7.5'
p329
sg6
S'1018.2'
p330
sg8
S'1018.2'
p331
sg10
S'935.7'
p332
sg12
S'water'
p333
sg14
S'953.9'
p334
sg16
S'957.4'
p335
sg18
S'957.4'
p336
sg20
S'961.6'
p337
sa(dp338
g3
S'940.0'
p339
sg5
I0
sg6
S'1006.0'
p340
sg8
S'1002.2'
p341
sg10
S'945.0'
p342
sg12
S'water'
p343
sg14
S'963.2'
p344
sg16
S'966.7'
p345
sg18
S'966.7'
p346
sg20
S'970.9'
p347
sa(dp348
g3
S'943.9'
p349
sg5
S'39.9'
p350
sg6
S'1057.8'
p351
sg8
S'1057.8'
p352
sg10
S'948.9'
p353
sg12
S'water'
p354
sg14
S'967.1'
p355
sg16
S'972.1'
p356
sg18
S'970.6'
p357
sg20
S'980.5'
p358
sa(dp359
g3
S'972.0'
p360
sg5
S'24.4'
p361
sg6
S'1081.4'
p362
sg8
S'1081.4'
p363
sg10
S'977.0'
p364
sg12
S'water'
p365
sg14
S'995.2'
p366
sg16
S'998.7'
p367
sg18
S'998.7'
p368
sg20
S'1002.9'
p369
sa(dp370
g3
S'983.2'
p371
sg5
S'19.1'
p372
sg6
S'1097.4'
p373
sg8
S'1097.4'
p374
sg10
S'988.2'
p375
sg12
S'water'
p376
sg14
S'1006.5'
p377
sg16
S'1010.0'
p378
sg18
S'1010.0'
p379
sg20
S'1014.1'
p380
sa(dp381
g3
S'1013.1'
p382
sg5
S'15.9'
p383
sg6
S'1137.0'
p384
sg8
S'1137.0'
p385
sg10
S'1018.1'
p386
sg12
S'water'
p387
sg14
S'1036.3'
p388
sg16
S'1039.8'
p389
sg18
S'1039.8'
p390
sg20
S'1044.0'
p391
sa(dp392
g3
S'1025.1'
p393
sg5
S'26.8'
p394
sg6
S'1121.0'
p395
sg8
S'1121.0'
p396
sg10
S'1030.1'
p397
sg12
S'water'
p398
sg14
S'1048.3'
p399
sg16
S'1051.8'
p400
sg18
S'1051.8'
p401
sg20
S'1056.0'
p402
sa(dp403
g3
S'1041.6'
p404
sg5
S'15.0'
p405
sg6
S'1176.6'
p406
sg8
S'1176.6'
p407
sg10
S'1046.6'
p408
sg12
S'water'
p409
sg14
S'1064.8'
p410
sg16
S'1068.3'
p411
sg18
S'1068.3'
p412
sg20
S'1072.5'
p413
sa(dp414
g3
S'1071.1'
p415
sg5
S'13.4'
p416
sg6
S'1160.6'
p417
sg8
S'1160.6'
p418
sg10
S'1076.1'
p419
sg12
S'water'
p420
sg14
S'1094.3'
p421
sg16
S'1097.8'
p422
sg18
S'1097.8'
p423
sg20
S'1102.0'
p424
saF93.560000000000016
F16.692307692307693
I13
t.