((lp1
(dp2
S'Arrival'
p3
S'12.2'
p4
sS'Late'
p5
I0
sS'Depart'
p6
S'120.2'
p7
sS'POWER'
p8
S'78.2'
p9
sS'Power_time'
p10
S'54.0'
p11
sS'Bag_time'
p12
S'28.0'
p13
sS'WATER'
p14
S'water'
p15
sS'BAGGAGE'
p16
S'52.2'
p17
sS'CATER'
p18
S'61.2'
p19
sS'LANDING'
p20
S'17.2'
p21
sS'CLEAN'
p22
S'60.2'
p23
sS'FUEL'
p24
S'59.2'
p25
sa(dp26
g3
S'18.4'
p27
sg5
I0
sg6
S'128.4'
p28
sg8
S'74.4'
p29
sg10
S'44.0'
p30
sg12
S'16.0'
p31
sg14
S'water'
p32
sg16
S'46.4'
p33
sg18
S'52.4'
p34
sg20
S'23.4'
p35
sg22
S'48.4'
p36
sg24
S'54.4'
p37
sa(dp38
g3
S'33.5'
p39
sg5
I0
sg6
S'147.5'
p40
sg8
S'118.4'
p41
sg10
S'44.0'
p42
sg12
S'16.0'
p43
sg14
S'water'
p44
sg16
S'62.4'
p45
sg18
S'74.4'
p46
sg20
S'38.5'
p47
sg22
S'66.4'
p48
sg24
S'78.4'
p49
sa(dp50
g3
S'87.8'
p51
sg5
I0
sg6
S'197.8'
p52
sg8
S'143.8'
p53
sg10
S'44.0'
p54
sg12
S'16.0'
p55
sg14
S'water'
p56
sg16
S'115.8'
p57
sg18
S'121.8'
p58
sg20
S'92.8'
p59
sg22
S'117.8'
p60
sg24
S'123.8'
p61
sa(dp62
g3
S'106.1'
p63
sg5
I0
sg6
S'195.1'
p64
sg8
S'162.4'
p65
sg10
S'44.0'
p66
sg12
S'16.0'
p67
sg14
S'water'
p68
sg16
S'134.1'
p69
sg18
S'140.1'
p70
sg20
S'111.1'
p71
sg22
S'136.1'
p72
sg24
S'142.1'
p73
sa(dp74
g3
S'131.9'
p75
sg5
I0
sg6
S'207.9'
p76
sg8
S'187.9'
p77
sg10
S'44.0'
p78
sg12
S'16.0'
p79
sg14
S'water'
p80
sg16
S'159.9'
p81
sg18
S'165.9'
p82
sg20
S'136.9'
p83
sg22
S'161.9'
p84
sg24
S'167.9'
p85
sa(dp86
g3
S'133.1'
p87
sg5
I0
sg6
S'239.1'
p88
sg8
S'206.4'
p89
sg10
S'44.0'
p90
sg12
S'16.0'
p91
sg14
S'water'
p92
sg16
S'161.1'
p93
sg18
S'167.1'
p94
sg20
S'138.1'
p95
sg22
S'163.1'
p96
sg24
S'169.1'
p97
sa(dp98
g3
S'147.2'
p99
sg5
I0
sg6
S'242.2'
p100
sg8
S'231.9'
p101
sg10
S'44.0'
p102
sg12
S'16.0'
p103
sg14
S'water'
p104
sg16
S'175.9'
p105
sg18
S'187.9'
p106
sg20
S'152.2'
p107
sg22
S'179.9'
p108
sg24
S'191.9'
p109
sa(dp110
g3
S'160.1'
p111
sg5
S'17.3'
p112
sg6
S'260.4'
p113
sg8
S'260.4'
p114
sg10
S'54.0'
p115
sg12
S'28.0'
p116
sg14
S'water'
p117
sg16
S'200.1'
p118
sg18
S'209.1'
p119
sg20
S'165.1'
p120
sg22
S'208.1'
p121
sg24
S'207.1'
p122
sa(dp123
g3
S'204.3'
p124
sg5
I0
sg6
S'275.9'
p125
sg8
S'275.9'
p126
sg10
S'44.0'
p127
sg12
S'16.0'
p128
sg14
S'water'
p129
sg16
S'232.3'
p130
sg18
S'238.3'
p131
sg20
S'209.3'
p132
sg22
S'234.3'
p133
sg24
S'240.3'
p134
sa(dp135
g3
S'241.4'
p136
sg5
I0
sg6
S'316.4'
p137
sg8
S'304.4'
p138
sg10
S'44.0'
p139
sg12
S'16.0'
p140
sg14
S'water'
p141
sg16
S'269.4'
p142
sg18
S'275.4'
p143
sg20
S'246.4'
p144
sg22
S'271.4'
p145
sg24
S'277.4'
p146
sa(dp147
g3
S'249.6'
p148
sg5
I0
sg6
S'366.6'
p149
sg8
S'319.9'
p150
sg10
S'44.0'
p151
sg12
S'16.0'
p152
sg14
S'water'
p153
sg16
S'277.6'
p154
sg18
S'283.6'
p155
sg20
S'254.6'
p156
sg22
S'279.6'
p157
sg24
S'285.6'
p158
sa(dp159
g3
S'300.9'
p160
sg5
I0
sg6
S'399.9'
p161
sg8
S'366.9'
p162
sg10
S'54.0'
p163
sg12
S'28.0'
p164
sg14
S'water'
p165
sg16
S'340.9'
p166
sg18
S'349.9'
p167
sg20
S'305.9'
p168
sg22
S'348.9'
p169
sg24
S'347.9'
p170
sa(dp171
g3
S'314.4'
p172
sg5
I0
sg6
S'384.4'
p173
sg8
S'370.4'
p174
sg10
S'44.0'
p175
sg12
S'16.0'
p176
sg14
S'water'
p177
sg16
S'342.4'
p178
sg18
S'348.4'
p179
sg20
S'319.4'
p180
sg22
S'344.4'
p181
sg24
S'350.4'
p182
sa(dp183
g3
S'316.4'
p184
sg5
I0
sg6
S'420.4'
p185
sg8
S'414.4'
p186
sg10
S'44.0'
p187
sg12
S'16.0'
p188
sg14
S'water'
p189
sg16
S'358.4'
p190
sg18
S'371.9'
p191
sg20
S'321.4'
p192
sg22
S'366.9'
p193
sg24
S'374.4'
p194
sa(dp195
g3
S'328.4'
p196
sg5
S'20.5'
p197
sg6
S'420.9'
p198
sg8
S'420.9'
p199
sg10
S'54.0'
p200
sg12
S'28.0'
p201
sg14
S'water'
p202
sg16
S'368.9'
p203
sg18
S'385.4'
p204
sg20
S'333.4'
p205
sg22
S'380.4'
p206
sg24
S'382.9'
p207
sa(dp208
g3
S'328.4'
p209
sg5
S'38.0'
p210
sg6
S'458.4'
p211
sg8
S'458.4'
p212
sg10
S'44.0'
p213
sg12
S'16.0'
p214
sg14
S'water'
p215
sg16
S'374.4'
p216
sg18
S'393.9'
p217
sg20
S'333.4'
p218
sg22
S'384.9'
p219
sg24
S'398.4'
p220
sa(dp221
g3
S'381.1'
p222
sg5
I0
sg6
S'501.1'
p223
sg8
S'474.9'
p224
sg10
S'54.0'
p225
sg12
S'28.0'
p226
sg14
S'water'
p227
sg16
S'421.1'
p228
sg18
S'430.1'
p229
sg20
S'386.1'
p230
sg22
S'429.1'
p231
sg24
S'428.1'
p232
sa(dp233
g3
S'435.3'
p234
sg5
I0
sg6
S'505.3'
p235
sg8
S'502.4'
p236
sg10
S'44.0'
p237
sg12
S'16.0'
p238
sg14
S'water'
p239
sg16
S'463.3'
p240
sg18
S'469.3'
p241
sg20
S'440.3'
p242
sg22
S'465.3'
p243
sg24
S'471.3'
p244
sa(dp245
g3
S'438.9'
p246
sg5
I0
sg6
S'554.9'
p247
sg8
S'546.4'
p248
sg10
S'44.0'
p249
sg12
S'16.0'
p250
sg14
S'water'
p251
sg16
S'466.9'
p252
sg18
S'472.9'
p253
sg20
S'443.9'
p254
sg22
S'468.9'
p255
sg24
S'474.9'
p256
sa(dp257
g3
S'439.9'
p258
sg5
I0
sg6
S'514.5'
p259
sg8
S'514.5'
p260
sg10
S'39.6'
p261
sg12
S'11.2'
p262
sg14
S'water'
p263
sg16
S'474.5'
p264
sg18
S'486.8'
p265
sg20
S'444.9'
p266
sg22
S'480.0'
p267
sg24
S'490.2'
p268
sa(dp269
g3
S'493.1'
p270
sg5
I0
sg6
S'607.0'
p271
sg8
S'590.4'
p272
sg10
S'44.0'
p273
sg12
S'16.0'
p274
sg14
S'water'
p275
sg16
S'521.0'
p276
sg18
S'527.0'
p277
sg20
S'498.1'
p278
sg22
S'523.0'
p279
sg24
S'529.0'
p280
sa(dp281
g3
S'497.8'
p282
sg5
I0
sg6
S'567.8'
p283
sg8
S'558.5'
p284
sg10
S'44.0'
p285
sg12
S'16.0'
p286
sg14
S'water'
p287
sg16
S'525.8'
p288
sg18
S'531.8'
p289
sg20
S'502.8'
p290
sg22
S'527.8'
p291
sg24
S'533.8'
p292
sa(dp293
g3
S'514.6'
p294
sg5
I0
sg6
S'612.6'
p295
sg8
S'602.5'
p296
sg10
S'44.0'
p297
sg12
S'16.0'
p298
sg14
S'water'
p299
sg16
S'542.6'
p300
sg18
S'549.0'
p301
sg20
S'519.6'
p302
sg22
S'544.6'
p303
sg24
S'553.0'
p304
sa(dp305
g3
S'517.8'
p306
sg5
I0
sg6
S'634.4'
p307
sg8
S'634.4'
p308
sg10
S'44.0'
p309
sg12
S'16.0'
p310
sg14
S'water'
p311
sg16
S'545.8'
p312
sg18
S'553.8'
p313
sg20
S'522.8'
p314
sg22
S'547.8'
p315
sg24
S'557.8'
p316
sa(dp317
g3
S'534.4'
p318
sg5
S'30.0'
p319
sg6
S'678.4'
p320
sg8
S'678.4'
p321
sg10
S'44.0'
p322
sg12
S'16.0'
p323
sg14
S'water'
p324
sg16
S'562.4'
p325
sg18
S'571.0'
p326
sg20
S'539.4'
p327
sg22
S'564.4'
p328
sg24
S'577.0'
p329
sa(dp330
g3
S'545.4'
p331
sg5
I0
sg6
S'646.5'
p332
sg8
S'646.5'
p333
sg10
S'44.0'
p334
sg12
S'16.0'
p335
sg14
S'water'
p336
sg16
S'573.4'
p337
sg18
S'579.4'
p338
sg20
S'550.4'
p339
sg22
S'575.4'
p340
sg24
S'581.8'
p341
sa(dp342
g3
S'598.2'
p343
sg5
I0
sg6
S'692.2'
p344
sg8
S'690.5'
p345
sg10
S'44.0'
p346
sg12
S'16.0'
p347
sg14
S'water'
p348
sg16
S'626.2'
p349
sg18
S'632.2'
p350
sg20
S'603.2'
p351
sg22
S'628.2'
p352
sg24
S'634.2'
p353
sa(dp354
g3
S'620.4'
p355
sg5
I0
sg6
S'718.4'
p356
sg8
S'718.0'
p357
sg10
S'39.6'
p358
sg12
S'11.2'
p359
sg14
S'water'
p360
sg16
S'643.6'
p361
sg18
S'649.9'
p362
sg20
S'625.4'
p363
sg22
S'647.1'
p364
sg24
S'651.3'
p365
sa(dp366
g3
S'668.2'
p367
sg5
I0
sg6
S'788.5'
p368
sg8
S'788.5'
p369
sg10
S'44.0'
p370
sg12
S'16.0'
p371
sg14
S'water'
p372
sg16
S'696.2'
p373
sg18
S'702.2'
p374
sg20
S'673.2'
p375
sg22
S'698.2'
p376
sg24
S'704.2'
p377
sa(dp378
g3
S'676.9'
p379
sg5
I0
sg6
S'744.5'
p380
sg8
S'744.5'
p381
sg10
S'54.0'
p382
sg12
S'28.0'
p383
sg14
S'water'
p384
sg16
S'716.9'
p385
sg18
S'725.9'
p386
sg20
S'681.9'
p387
sg22
S'724.9'
p388
sg24
S'723.9'
p389
sa(dp390
g3
S'678.1'
p391
sg5
I0
sg6
S'766.1'
p392
sg8
S'762.0'
p393
sg10
S'44.0'
p394
sg12
S'16.0'
p395
sg14
S'water'
p396
sg16
S'712.2'
p397
sg18
S'724.2'
p398
sg20
S'683.1'
p399
sg22
S'716.2'
p400
sg24
S'728.2'
p401
sa(dp402
g3
S'746.0'
p403
sg5
I0
sg6
S'815.0'
p404
sg8
S'806.0'
p405
sg10
S'44.0'
p406
sg12
S'16.0'
p407
sg14
S'water'
p408
sg16
S'774.0'
p409
sg18
S'780.0'
p410
sg20
S'751.0'
p411
sg22
S'776.0'
p412
sg24
S'782.0'
p413
sa(dp414
g3
S'828.2'
p415
sg5
I0
sg6
S'900.2'
p416
sg8
S'884.2'
p417
sg10
S'44.0'
p418
sg12
S'16.0'
p419
sg14
S'water'
p420
sg16
S'856.2'
p421
sg18
S'862.2'
p422
sg20
S'833.2'
p423
sg22
S'858.2'
p424
sg24
S'864.2'
p425
sa(dp426
g3
S'902.8'
p427
sg5
I0
sg6
S'977.8'
p428
sg8
S'954.4'
p429
sg10
S'39.6'
p430
sg12
S'11.2'
p431
sg14
S'water'
p432
sg16
S'926.0'
p433
sg18
S'932.3'
p434
sg20
S'907.8'
p435
sg22
S'929.5'
p436
sg24
S'933.7'
p437
sa(dp438
g3
S'952.7'
p439
sg5
I0
sg6
S'1020.7'
p440
sg8
S'1008.7'
p441
sg10
S'44.0'
p442
sg12
S'16.0'
p443
sg14
S'water'
p444
sg16
S'980.7'
p445
sg18
S'986.7'
p446
sg20
S'957.7'
p447
sg22
S'982.7'
p448
sg24
S'988.7'
p449
sa(dp450
g3
S'967.4'
p451
sg5
I0
sg6
S'1092.4'
p452
sg8
S'1023.4'
p453
sg10
S'44.0'
p454
sg12
S'16.0'
p455
sg14
S'water'
p456
sg16
S'995.4'
p457
sg18
S'1001.4'
p458
sg20
S'972.4'
p459
sg22
S'997.4'
p460
sg24
S'1003.4'
p461
sa(dp462
g3
S'976.5'
p463
sg5
I0
sg6
S'1092.5'
p464
sg8
S'1052.7'
p465
sg10
S'44.0'
p466
sg12
S'16.0'
p467
sg14
S'water'
p468
sg16
S'1004.5'
p469
sg18
S'1010.5'
p470
sg20
S'981.5'
p471
sg22
S'1006.5'
p472
sg24
S'1012.7'
p473
sa(dp474
g3
S'980.2'
p475
sg5
I0
sg6
S'1097.2'
p476
sg8
S'1096.7'
p477
sg10
S'44.0'
p478
sg12
S'16.0'
p479
sg14
S'water'
p480
sg16
S'1011.4'
p481
sg18
S'1023.4'
p482
sg20
S'985.2'
p483
sg22
S'1015.4'
p484
sg24
S'1027.4'
p485
sa(dp486
g3
S'1009.4'
p487
sg5
I0
sg6
S'1091.3'
p488
sg8
S'1067.4'
p489
sg10
S'44.0'
p490
sg12
S'16.0'
p491
sg14
S'water'
p492
sg16
S'1037.3'
p493
sg18
S'1043.3'
p494
sg20
S'1014.4'
p495
sg22
S'1039.3'
p496
sg24
S'1045.3'
p497
saF97.084999999999994
F26.449999999999999
I4
t.