((lp1
(dp2
S'Arrival'
p3
S'17.2'
p4
sS'Late'
p5
I0
sS'Depart'
p6
S'87.2'
p7
sS'POWER'
p8
S'73.2'
p9
sS'LANDING'
p10
S'22.2'
p11
sS'WATER'
p12
S'water'
p13
sS'BAGGAGE'
p14
S'45.2'
p15
sS'CATER'
p16
S'51.2'
p17
sS'CLEAN'
p18
S'47.2'
p19
sS'FUEL'
p20
S'53.2'
p21
sa(dp22
g3
S'21.3'
p23
sg5
I0
sg6
S'117.3'
p24
sg8
S'77.3'
p25
sg10
S'26.3'
p26
sg12
S'water'
p27
sg14
S'49.3'
p28
sg16
S'55.3'
p29
sg18
S'51.3'
p30
sg20
S'57.3'
p31
sa(dp32
g3
S'40.4'
p33
sg5
I0
sg6
S'165.3'
p34
sg8
S'96.3'
p35
sg10
S'45.4'
p36
sg12
S'water'
p37
sg14
S'68.3'
p38
sg16
S'74.3'
p39
sg18
S'70.3'
p40
sg20
S'76.3'
p41
sa(dp42
g3
S'51.4'
p43
sg5
I0
sg6
S'138.4'
p44
sg8
S'117.2'
p45
sg10
S'56.4'
p46
sg12
S'water'
p47
sg14
S'79.4'
p48
sg16
S'85.4'
p49
sg18
S'81.4'
p50
sg20
S'87.4'
p51
sa(dp52
g3
S'173.5'
p53
sg5
I0
sg6
S'270.5'
p54
sg8
S'229.5'
p55
sg10
S'178.5'
p56
sg12
S'water'
p57
sg14
S'201.5'
p58
sg16
S'207.5'
p59
sg18
S'203.5'
p60
sg20
S'209.5'
p61
sa(dp62
g3
S'219.5'
p63
sg5
I0
sg6
S'306.5'
p64
sg8
S'275.5'
p65
sg10
S'224.5'
p66
sg12
S'water'
p67
sg14
S'247.5'
p68
sg16
S'253.5'
p69
sg18
S'249.5'
p70
sg20
S'255.5'
p71
sa(dp72
g3
S'238.8'
p73
sg5
I0
sg6
S'324.8'
p74
sg8
S'304.8'
p75
sg10
S'243.8'
p76
sg12
S'water'
p77
sg14
S'278.8'
p78
sg16
S'287.8'
p79
sg18
S'286.8'
p80
sg20
S'285.8'
p81
sa(dp82
g3
S'242.8'
p83
sg5
I0
sg6
S'326.8'
p84
sg8
S'298.8'
p85
sg10
S'247.8'
p86
sg12
S'water'
p87
sg14
S'270.8'
p88
sg16
S'276.8'
p89
sg18
S'272.8'
p90
sg20
S'278.8'
p91
sa(dp92
g3
S'305.5'
p93
sg5
I0
sg6
S'381.5'
p94
sg8
S'357.1'
p95
sg10
S'310.5'
p96
sg12
S'water'
p97
sg14
S'328.7'
p98
sg16
S'335.0'
p99
sg18
S'332.2'
p100
sg20
S'336.4'
p101
sa(dp102
g3
S'357.8'
p103
sg5
I0
sg6
S'466.8'
p104
sg8
S'413.8'
p105
sg10
S'362.8'
p106
sg12
S'water'
p107
sg14
S'385.8'
p108
sg16
S'391.8'
p109
sg18
S'387.8'
p110
sg20
S'393.8'
p111
sa(dp112
g3
S'362.2'
p113
sg5
I0
sg6
S'443.2'
p114
sg8
S'418.2'
p115
sg10
S'367.2'
p116
sg12
S'water'
p117
sg14
S'390.2'
p118
sg16
S'396.2'
p119
sg18
S'392.2'
p120
sg20
S'398.2'
p121
sa(dp122
g3
S'384.7'
p123
sg5
I0
sg6
S'476.7'
p124
sg8
S'440.7'
p125
sg10
S'389.7'
p126
sg12
S'water'
p127
sg14
S'412.7'
p128
sg16
S'418.7'
p129
sg18
S'414.7'
p130
sg20
S'420.7'
p131
sa(dp132
g3
S'388.4'
p133
sg5
I0
sg6
S'492.4'
p134
sg8
S'457.8'
p135
sg10
S'393.4'
p136
sg12
S'water'
p137
sg14
S'416.4'
p138
sg16
S'422.4'
p139
sg18
S'418.4'
p140
sg20
S'424.4'
p141
sa(dp142
g3
S'404.0'
p143
sg5
I0
sg6
S'480.0'
p144
sg8
S'462.2'
p145
sg10
S'409.0'
p146
sg12
S'water'
p147
sg14
S'432.0'
p148
sg16
S'438.0'
p149
sg18
S'434.0'
p150
sg20
S'440.0'
p151
sa(dp152
g3
S'423.7'
p153
sg5
I0
sg6
S'501.7'
p154
sg8
S'484.7'
p155
sg10
S'428.7'
p156
sg12
S'water'
p157
sg14
S'451.7'
p158
sg16
S'457.7'
p159
sg18
S'453.7'
p160
sg20
S'459.7'
p161
sa(dp162
g3
S'446.8'
p163
sg5
I0
sg6
S'563.8'
p164
sg8
S'502.8'
p165
sg10
S'451.8'
p166
sg12
S'water'
p167
sg14
S'474.8'
p168
sg16
S'480.8'
p169
sg18
S'476.8'
p170
sg20
S'482.8'
p171
sa(dp172
g3
S'464.1'
p173
sg5
I0
sg6
S'563.1'
p174
sg8
S'520.1'
p175
sg10
S'469.1'
p176
sg12
S'water'
p177
sg14
S'492.1'
p178
sg16
S'498.1'
p179
sg18
S'494.1'
p180
sg20
S'500.1'
p181
sa(dp182
g3
S'502.3'
p183
sg5
I0
sg6
S'567.3'
p184
sg8
S'558.3'
p185
sg10
S'507.3'
p186
sg12
S'water'
p187
sg14
S'530.3'
p188
sg16
S'536.3'
p189
sg18
S'532.3'
p190
sg20
S'538.3'
p191
sa(dp192
g3
S'520.3'
p193
sg5
I0
sg6
S'624.3'
p194
sg8
S'576.3'
p195
sg10
S'525.3'
p196
sg12
S'water'
p197
sg14
S'548.3'
p198
sg16
S'554.3'
p199
sg18
S'550.3'
p200
sg20
S'556.3'
p201
sa(dp202
g3
S'541.4'
p203
sg5
I0
sg6
S'654.4'
p204
sg8
S'597.4'
p205
sg10
S'546.4'
p206
sg12
S'water'
p207
sg14
S'569.4'
p208
sg16
S'575.4'
p209
sg18
S'571.4'
p210
sg20
S'577.4'
p211
sa(dp212
g3
S'584.6'
p213
sg5
I0
sg6
S'651.6'
p214
sg8
S'640.6'
p215
sg10
S'589.6'
p216
sg12
S'water'
p217
sg14
S'612.6'
p218
sg16
S'618.6'
p219
sg18
S'614.6'
p220
sg20
S'620.6'
p221
sa(dp222
g3
S'599.6'
p223
sg5
I0
sg6
S'723.6'
p224
sg8
S'655.6'
p225
sg10
S'604.6'
p226
sg12
S'water'
p227
sg14
S'627.6'
p228
sg16
S'633.6'
p229
sg18
S'629.6'
p230
sg20
S'635.6'
p231
sa(dp232
g3
S'624.1'
p233
sg5
I0
sg6
S'723.1'
p234
sg8
S'680.1'
p235
sg10
S'629.1'
p236
sg12
S'water'
p237
sg14
S'652.1'
p238
sg16
S'658.1'
p239
sg18
S'654.1'
p240
sg20
S'660.1'
p241
sa(dp242
g3
S'646.4'
p243
sg5
I0
sg6
S'716.4'
p244
sg8
S'702.4'
p245
sg10
S'651.4'
p246
sg12
S'water'
p247
sg14
S'674.4'
p248
sg16
S'680.4'
p249
sg18
S'676.4'
p250
sg20
S'682.4'
p251
sa(dp252
g3
S'660.1'
p253
sg5
I0
sg6
S'759.1'
p254
sg8
S'716.1'
p255
sg10
S'665.1'
p256
sg12
S'water'
p257
sg14
S'688.1'
p258
sg16
S'694.1'
p259
sg18
S'690.1'
p260
sg20
S'696.1'
p261
sa(dp262
g3
S'661.8'
p263
sg5
I0
sg6
S'730.8'
p264
sg8
S'724.1'
p265
sg10
S'666.8'
p266
sg12
S'water'
p267
sg14
S'689.8'
p268
sg16
S'695.8'
p269
sg18
S'691.8'
p270
sg20
S'697.8'
p271
sa(dp272
g3
S'664.9'
p273
sg5
I0
sg6
S'790.4'
p274
sg8
S'790.4'
p275
sg10
S'669.9'
p276
sg12
S'water'
p277
sg14
S'692.9'
p278
sg16
S'702.4'
p279
sg18
S'694.9'
p280
sg20
S'720.1'
p281
sa(dp282
g3
S'669.2'
p283
sg5
I0
sg6
S'771.2'
p284
sg8
S'746.4'
p285
sg10
S'674.2'
p286
sg12
S'water'
p287
sg14
S'704.1'
p288
sg16
S'716.1'
p289
sg18
S'708.1'
p290
sg20
S'706.4'
p291
sa(dp292
g3
S'670.4'
p293
sg5
S'37.6'
p294
sg6
S'814.1'
p295
sg8
S'814.1'
p296
sg10
S'675.4'
p297
sg12
S'water'
p298
sg14
S'705.8'
p299
sg16
S'717.8'
p300
sg18
S'709.8'
p301
sg20
S'730.4'
p302
sa(dp303
g3
S'684.6'
p304
sg5
I0
sg6
S'778.1'
p305
sg8
S'778.1'
p306
sg10
S'689.6'
p307
sg12
S'water'
p308
sg14
S'724.6'
p309
sg16
S'739.4'
p310
sg18
S'732.6'
p311
sg20
S'732.8'
p312
sa(dp313
g3
S'694.6'
p314
sg5
I0
sg6
S'774.6'
p315
sg8
S'770.1'
p316
sg10
S'699.6'
p317
sg12
S'water'
p318
sg14
S'734.6'
p319
sg16
S'753.1'
p320
sg18
S'744.1'
p321
sg20
S'755.1'
p322
sa(dp323
g3
S'754.9'
p324
sg5
I0
sg6
S'822.9'
p325
sg8
S'822.1'
p326
sg10
S'759.9'
p327
sg12
S'water'
p328
sg14
S'782.9'
p329
sg16
S'788.9'
p330
sg18
S'784.9'
p331
sg20
S'790.9'
p332
sa(dp333
g3
S'783.7'
p334
sg5
I0
sg6
S'850.7'
p335
sg8
S'839.7'
p336
sg10
S'788.7'
p337
sg12
S'water'
p338
sg14
S'811.7'
p339
sg16
S'817.7'
p340
sg18
S'813.7'
p341
sg20
S'819.7'
p342
sa(dp343
g3
S'904.3'
p344
sg5
I0
sg6
S'1008.3'
p345
sg8
S'960.3'
p346
sg10
S'909.3'
p347
sg12
S'water'
p348
sg14
S'932.3'
p349
sg16
S'938.3'
p350
sg18
S'934.3'
p351
sg20
S'940.3'
p352
sa(dp353
g3
S'924.3'
p354
sg5
I0
sg6
S'1017.3'
p355
sg8
S'980.3'
p356
sg10
S'929.3'
p357
sg12
S'water'
p358
sg14
S'952.3'
p359
sg16
S'958.3'
p360
sg18
S'954.3'
p361
sg20
S'960.3'
p362
sa(dp363
g3
S'986.8'
p364
sg5
I0
sg6
S'1109.8'
p365
sg8
S'1042.8'
p366
sg10
S'991.8'
p367
sg12
S'water'
p368
sg14
S'1014.8'
p369
sg16
S'1020.8'
p370
sg18
S'1016.8'
p371
sg20
S'1022.8'
p372
sa(dp373
g3
S'1005.4'
p374
sg5
I0
sg6
S'1104.4'
p375
sg8
S'1061.4'
p376
sg10
S'1010.4'
p377
sg12
S'water'
p378
sg14
S'1033.4'
p379
sg16
S'1039.4'
p380
sg18
S'1035.4'
p381
sg20
S'1041.4'
p382
sa(dp383
g3
S'1011.7'
p384
sg5
I0
sg6
S'1106.7'
p385
sg8
S'1067.7'
p386
sg10
S'1016.7'
p387
sg12
S'water'
p388
sg14
S'1039.7'
p389
sg16
S'1045.7'
p390
sg18
S'1041.7'
p391
sg20
S'1047.7'
p392
sa(dp393
g3
S'1033.0'
p394
sg5
I0
sg6
S'1127.0'
p395
sg8
S'1089.0'
p396
sg10
S'1038.0'
p397
sg12
S'water'
p398
sg14
S'1061.0'
p399
sg16
S'1067.0'
p400
sg18
S'1063.0'
p401
sg20
S'1069.0'
p402
sa(dp403
g3
S'1039.1'
p404
sg5
I0
sg6
S'1158.1'
p405
sg8
S'1105.4'
p406
sg10
S'1044.1'
p407
sg12
S'water'
p408
sg14
S'1067.1'
p409
sg16
S'1073.1'
p410
sg18
S'1069.1'
p411
sg20
S'1075.1'
p412
saF94.515000000000015
F37.600000000000001
I1
t.