((lp1
(dp2
S'Arrival'
p3
S'65.3'
p4
sS'Late'
p5
I0
sS'Depart'
p6
S'167.3'
p7
sS'POWER'
p8
S'121.3'
p9
sS'Bag_time'
p10
S'16.0'
p11
sS'WATER'
p12
S'water'
p13
sS'BAGGAGE'
p14
S'93.3'
p15
sS'CATER'
p16
S'99.3'
p17
sS'LANDING'
p18
S'70.3'
p19
sS'CLEAN'
p20
S'95.3'
p21
sS'FUEL'
p22
S'101.3'
p23
sa(dp24
g3
S'80.8'
p25
sg5
I0
sg6
S'165.3'
p26
sg8
S'165.3'
p27
sg10
S'16.6'
p28
sg12
S'water'
p29
sg14
S'109.3'
p30
sg16
S'121.3'
p31
sg18
S'85.8'
p32
sg20
S'113.3'
p33
sg22
S'125.3'
p34
sa(dp35
g3
S'123.2'
p36
sg5
I0
sg6
S'237.2'
p37
sg8
S'209.3'
p38
sg10
S'16.0'
p39
sg12
S'water'
p40
sg14
S'151.2'
p41
sg16
S'157.2'
p42
sg18
S'128.2'
p43
sg20
S'153.2'
p44
sg22
S'159.2'
p45
sa(dp46
g3
S'188.1'
p47
sg5
I0
sg6
S'263.3'
p48
sg8
S'263.3'
p49
sg10
S'28.0'
p50
sg12
S'water'
p51
sg14
S'228.1'
p52
sg16
S'237.1'
p53
sg18
S'193.1'
p54
sg20
S'236.1'
p55
sg22
S'235.1'
p56
sa(dp57
g3
S'188.6'
p58
sg5
S'124.7'
p59
sg6
S'395.3'
p60
sg8
S'395.3'
p61
sg10
S'75.5'
p62
sg12
S'water'
p63
sg14
S'276.1'
p64
sg16
S'303.1'
p65
sg18
S'193.6'
p66
sg20
S'290.1'
p67
sg22
S'307.1'
p68
sa(dp69
g3
S'197.7'
p70
sg5
S'39.6'
p71
sg6
S'307.3'
p72
sg8
S'307.3'
p73
sg10
S'34.3'
p74
sg12
S'water'
p75
sg14
S'244.1'
p76
sg16
S'259.1'
p77
sg18
S'202.7'
p78
sg20
S'254.1'
p79
sg22
S'259.1'
p80
sa(dp81
g3
S'204.2'
p82
sg5
S'82.1'
p83
sg6
S'351.3'
p84
sg8
S'351.3'
p85
sg10
S'43.8'
p86
sg12
S'water'
p87
sg14
S'260.1'
p88
sg16
S'281.1'
p89
sg18
S'209.2'
p90
sg20
S'272.1'
p91
sg22
S'283.1'
p92
sa(dp93
g3
S'209.6'
p94
sg5
S'161.8'
p95
sg6
S'483.3'
p96
sg8
S'483.3'
p97
sg10
S'86.5'
p98
sg12
S'water'
p99
sg14
S'308.1'
p100
sg16
S'347.1'
p101
sg18
S'214.6'
p102
sg20
S'326.1'
p103
sg22
S'355.1'
p104
sa(dp105
g3
S'213.6'
p106
sg5
S'119.8'
p107
sg6
S'439.3'
p108
sg8
S'439.3'
p109
sg10
S'66.5'
p110
sg12
S'water'
p111
sg14
S'292.1'
p112
sg16
S'325.1'
p113
sg18
S'218.6'
p114
sg20
S'308.1'
p115
sg22
S'331.1'
p116
sa(dp117
g3
S'281.6'
p118
sg5
S'131.7'
p119
sg6
S'527.3'
p120
sg8
S'527.3'
p121
sg10
S'30.5'
p122
sg12
S'water'
p123
sg14
S'324.1'
p124
sg16
S'369.1'
p125
sg18
S'286.6'
p126
sg20
S'344.1'
p127
sg22
S'379.1'
p128
sa(dp129
g3
S'330.6'
p130
sg5
S'132.7'
p131
sg6
S'571.3'
p132
sg8
S'571.3'
p133
sg10
S'16.0'
p134
sg12
S'water'
p135
sg14
S'358.6'
p136
sg16
S'391.1'
p137
sg18
S'335.6'
p138
sg20
S'362.1'
p139
sg22
S'403.1'
p140
sa(dp141
g3
S'350.1'
p142
sg5
S'188.2'
p143
sg6
S'659.3'
p144
sg8
S'659.3'
p145
sg10
S'16.0'
p146
sg12
S'water'
p147
sg14
S'378.1'
p148
sg16
S'435.1'
p149
sg18
S'355.1'
p150
sg20
S'380.1'
p151
sg22
S'451.1'
p152
sa(dp153
g3
S'362.2'
p154
sg5
S'147.1'
p155
sg6
S'615.3'
p156
sg8
S'615.3'
p157
sg10
S'19.9'
p158
sg12
S'water'
p159
sg14
S'394.1'
p160
sg16
S'413.1'
p161
sg18
S'367.2'
p162
sg20
S'398.1'
p163
sg22
S'427.1'
p164
sa(dp165
g3
S'406.7'
p166
sg5
S'241.6'
p167
sg6
S'747.3'
p168
sg8
S'747.3'
p169
sg10
S'16.0'
p170
sg12
S'water'
p171
sg14
S'434.7'
p172
sg16
S'479.1'
p173
sg18
S'411.7'
p174
sg20
S'436.7'
p175
sg22
S'499.1'
p176
sa(dp177
g3
S'418.6'
p178
sg5
S'204.7'
p179
sg6
S'703.3'
p180
sg8
S'703.3'
p181
sg10
S'20.1'
p182
sg12
S'water'
p183
sg14
S'450.7'
p184
sg16
S'457.1'
p185
sg18
S'423.6'
p186
sg20
S'454.7'
p187
sg22
S'475.1'
p188
sa(dp189
g3
S'434.8'
p190
sg5
S'272.5'
p191
sg6
S'791.3'
p192
sg8
S'791.3'
p193
sg10
S'19.9'
p194
sg12
S'water'
p195
sg14
S'466.7'
p196
sg16
S'501.1'
p197
sg18
S'439.8'
p198
sg20
S'472.7'
p199
sg22
S'523.1'
p200
sa(dp201
g3
S'434.9'
p202
sg5
S'310.5'
p203
sg6
S'835.3'
p204
sg8
S'835.3'
p205
sg10
S'35.9'
p206
sg12
S'water'
p207
sg14
S'482.7'
p208
sg16
S'523.1'
p209
sg18
S'439.9'
p210
sg20
S'490.7'
p211
sg22
S'547.1'
p212
sa(dp213
g3
S'469.2'
p214
sg5
S'389.1'
p215
sg6
S'967.3'
p216
sg8
S'967.3'
p217
sg10
S'17.5'
p218
sg12
S'water'
p219
sg14
S'498.7'
p220
sg16
S'589.1'
p221
sg18
S'474.2'
p222
sg20
S'508.7'
p223
sg22
S'619.1'
p224
sa(dp225
g3
S'485.3'
p226
sg5
S'354.0'
p227
sg6
S'923.3'
p228
sg8
S'923.3'
p229
sg10
S'17.4'
p230
sg12
S'water'
p231
sg14
S'514.7'
p232
sg16
S'567.1'
p233
sg18
S'490.3'
p234
sg20
S'544.7'
p235
sg22
S'595.1'
p236
sa(dp237
g3
S'489.0'
p238
sg5
S'314.4'
p239
sg6
S'879.3'
p240
sg8
S'879.3'
p241
sg10
S'29.8'
p242
sg12
S'water'
p243
sg14
S'530.7'
p244
sg16
S'545.1'
p245
sg18
S'494.0'
p246
sg20
S'526.7'
p247
sg22
S'571.1'
p248
sa(dp249
g3
S'493.0'
p250
sg5
S'397.0'
p251
sg6
S'1011.3'
p252
sg8
S'1011.3'
p253
sg10
S'16.0'
p254
sg12
S'water'
p255
sg14
S'557.3'
p256
sg16
S'611.1'
p257
sg18
S'534.3'
p258
sg20
S'562.7'
p259
sg22
S'643.1'
p260
sa(dp261
g3
S'525.8'
p262
sg5
S'386.0'
p263
sg6
S'1055.3'
p264
sg8
S'1055.3'
p265
sg10
S'16.0'
p266
sg12
S'water'
p267
sg14
S'601.3'
p268
sg16
S'633.1'
p269
sg18
S'578.3'
p270
sg20
S'603.3'
p271
sg22
S'667.1'
p272
sa(dp273
g3
S'526.8'
p274
sg5
S'414.0'
p275
sg6
S'1099.3'
p276
sg8
S'1099.3'
p277
sg10
S'16.0'
p278
sg12
S'water'
p279
sg14
S'645.3'
p280
sg16
S'655.1'
p281
sg18
S'622.3'
p282
sg20
S'647.3'
p283
sg22
S'691.1'
p284
sa(dp285
g3
S'591.4'
p286
sg5
S'375.0'
p287
sg6
S'1143.3'
p288
sg8
S'1143.3'
p289
sg10
S'16.0'
p290
sg12
S'water'
p291
sg14
S'689.3'
p292
sg16
S'695.3'
p293
sg18
S'666.3'
p294
sg20
S'691.3'
p295
sg22
S'715.1'
p296
sa(dp297
g3
S'602.5'
p298
sg5
S'396.0'
p299
sg6
S'1187.3'
p300
sg8
S'1187.3'
p301
sg10
S'16.0'
p302
sg12
S'water'
p303
sg14
S'733.3'
p304
sg16
S'739.3'
p305
sg18
S'710.3'
p306
sg20
S'735.3'
p307
sg22
S'741.3'
p308
sa(dp309
g3
S'689.0'
p310
sg5
S'408.0'
p311
sg6
S'1231.3'
p312
sg8
S'1231.3'
p313
sg10
S'16.0'
p314
sg12
S'water'
p315
sg14
S'777.3'
p316
sg16
S'783.3'
p317
sg18
S'754.3'
p318
sg20
S'779.3'
p319
sg22
S'785.3'
p320
sa(dp321
g3
S'709.7'
p322
sg5
S'401.0'
p323
sg6
S'1319.3'
p324
sg8
S'1319.3'
p325
sg10
S'16.0'
p326
sg12
S'water'
p327
sg14
S'821.3'
p328
sg16
S'827.3'
p329
sg18
S'798.3'
p330
sg20
S'823.3'
p331
sg22
S'829.3'
p332
sa(dp333
g3
S'728.8'
p334
sg5
S'359.0'
p335
sg6
S'1275.3'
p336
sg8
S'1275.3'
p337
sg10
S'16.0'
p338
sg12
S'water'
p339
sg14
S'865.3'
p340
sg16
S'871.3'
p341
sg18
S'842.3'
p342
sg20
S'867.3'
p343
sg22
S'873.3'
p344
sa(dp345
g3
S'743.4'
p346
sg5
S'384.0'
p347
sg6
S'1363.3'
p348
sg8
S'1363.3'
p349
sg10
S'16.0'
p350
sg12
S'water'
p351
sg14
S'909.3'
p352
sg16
S'915.3'
p353
sg18
S'886.3'
p354
sg20
S'911.3'
p355
sg22
S'917.3'
p356
sa(dp357
g3
S'761.7'
p358
sg5
S'377.0'
p359
sg6
S'1407.3'
p360
sg8
S'1407.3'
p361
sg10
S'16.0'
p362
sg12
S'water'
p363
sg14
S'953.3'
p364
sg16
S'959.3'
p365
sg18
S'930.3'
p366
sg20
S'955.3'
p367
sg22
S'961.3'
p368
sa(dp369
g3
S'762.7'
p370
sg5
S'382.0'
p371
sg6
S'1451.3'
p372
sg8
S'1451.3'
p373
sg10
S'16.0'
p374
sg12
S'water'
p375
sg14
S'997.3'
p376
sg16
S'1003.3'
p377
sg18
S'974.3'
p378
sg20
S'999.3'
p379
sg22
S'1005.3'
p380
sa(dp381
g3
S'769.5'
p382
sg5
S'384.0'
p383
sg6
S'1495.3'
p384
sg8
S'1495.3'
p385
sg10
S'16.0'
p386
sg12
S'water'
p387
sg14
S'1041.3'
p388
sg16
S'1047.3'
p389
sg18
S'1018.3'
p390
sg20
S'1043.3'
p391
sg22
S'1049.3'
p392
sa(dp393
g3
S'772.5'
p394
sg5
S'387.0'
p395
sg6
S'1539.3'
p396
sg8
S'1539.3'
p397
sg10
S'16.0'
p398
sg12
S'water'
p399
sg14
S'1085.3'
p400
sg16
S'1091.3'
p401
sg18
S'1062.3'
p402
sg20
S'1087.3'
p403
sg22
S'1093.3'
p404
sa(dp405
g3
S'782.0'
p406
sg5
S'408.0'
p407
sg6
S'1583.3'
p408
sg8
S'1583.3'
p409
sg10
S'16.0'
p410
sg12
S'water'
p411
sg14
S'1129.3'
p412
sg16
S'1135.3'
p413
sg18
S'1106.3'
p414
sg20
S'1131.3'
p415
sg22
S'1137.3'
p416
sa(dp417
g3
S'815.9'
p418
sg5
S'396.0'
p419
sg6
S'1627.3'
p420
sg8
S'1627.3'
p421
sg10
S'16.0'
p422
sg12
S'water'
p423
sg14
S'1173.3'
p424
sg16
S'1179.3'
p425
sg18
S'1150.3'
p426
sg20
S'1175.3'
p427
sg22
S'1181.3'
p428
sa(dp429
g3
S'859.0'
p430
sg5
S'360.0'
p431
sg6
S'1671.3'
p432
sg8
S'1671.3'
p433
sg10
S'16.0'
p434
sg12
S'water'
p435
sg14
S'1217.3'
p436
sg16
S'1223.3'
p437
sg18
S'1194.3'
p438
sg20
S'1219.3'
p439
sg22
S'1225.3'
p440
sa(dp441
g3
S'940.7'
p442
sg5
S'402.0'
p443
sg6
S'1715.3'
p444
sg8
S'1715.3'
p445
sg10
S'16.0'
p446
sg12
S'water'
p447
sg14
S'1261.3'
p448
sg16
S'1267.3'
p449
sg18
S'1238.3'
p450
sg20
S'1263.3'
p451
sg22
S'1269.3'
p452
sa(dp453
g3
S'953.8'
p454
sg5
S'417.0'
p455
sg6
S'1759.3'
p456
sg8
S'1759.3'
p457
sg10
S'16.0'
p458
sg12
S'water'
p459
sg14
S'1305.3'
p460
sg16
S'1311.3'
p461
sg18
S'1282.3'
p462
sg20
S'1307.3'
p463
sg22
S'1313.3'
p464
sa(dp465
g3
S'969.8'
p466
sg5
S'410.0'
p467
sg6
S'1813.3'
p468
sg8
S'1813.3'
p469
sg10
S'28.0'
p470
sg12
S'water'
p471
sg14
S'1361.3'
p472
sg16
S'1370.3'
p473
sg18
S'1326.3'
p474
sg20
S'1369.3'
p475
sg22
S'1368.3'
p476
sa(dp477
g3
S'1003.9'
p478
sg5
S'406.6'
p479
sg6
S'1852.9'
p480
sg8
S'1852.9'
p481
sg10
S'11.2'
p482
sg12
S'water'
p483
sg14
S'1388.5'
p484
sg16
S'1394.8'
p485
sg18
S'1370.3'
p486
sg20
S'1392.0'
p487
sg22
S'1396.2'
p488
saF467.38749999999999
F307.33611111111111
I36
t.