((lp1
(dp2
S'Arrival'
p3
S'94.0'
p4
sS'Late'
p5
I0
sS'Depart'
p6
S'160.0'
p7
sS'POWER'
p8
S'145.6'
p9
sS'LANDING'
p10
S'99.0'
p11
sS'WATER'
p12
S'water'
p13
sS'BAGGAGE'
p14
S'117.2'
p15
sS'CATER'
p16
S'120.7'
p17
sS'CLEAN'
p18
S'120.7'
p19
sS'FUEL'
p20
S'124.9'
p21
sa(dp22
g3
S'172.4'
p23
sg5
I0
sg6
S'268.4'
p24
sg8
S'224.0'
p25
sg10
S'177.4'
p26
sg12
S'water'
p27
sg14
S'195.6'
p28
sg16
S'199.1'
p29
sg18
S'199.1'
p30
sg20
S'203.3'
p31
sa(dp32
g3
S'181.6'
p33
sg5
S'55.0'
p34
sg6
S'303.6'
p35
sg8
S'303.6'
p36
sg10
S'186.6'
p37
sg12
S'water'
p38
sg14
S'233.6'
p39
sg16
S'215.6'
p40
sg18
S'229.6'
p41
sg20
S'228.6'
p42
sa(dp43
g3
S'211.3'
p44
sg5
I0
sg6
S'307.4'
p45
sg8
S'262.9'
p46
sg10
S'216.3'
p47
sg12
S'water'
p48
sg14
S'234.5'
p49
sg16
S'238.0'
p50
sg18
S'238.0'
p51
sg20
S'242.2'
p52
sa(dp53
g3
S'216.6'
p54
sg5
I0
sg6
S'290.6'
p55
sg8
S'268.2'
p56
sg10
S'221.6'
p57
sg12
S'water'
p58
sg14
S'239.8'
p59
sg16
S'243.3'
p60
sg18
S'243.3'
p61
sg20
S'247.5'
p62
sa(dp63
g3
S'217.4'
p64
sg5
I0
sg6
S'324.4'
p65
sg8
S'307.8'
p66
sg10
S'222.4'
p67
sg12
S'water'
p68
sg14
S'244.8'
p69
sg16
S'244.1'
p70
sg18
S'244.1'
p71
sg20
S'248.3'
p72
sa(dp73
g3
S'221.2'
p74
sg5
I0
sg6
S'342.2'
p75
sg8
S'342.2'
p76
sg10
S'226.2'
p77
sg12
S'water'
p78
sg14
S'245.7'
p79
sg16
S'252.7'
p80
sg18
S'247.9'
p81
sg20
S'261.1'
p82
sa(dp83
g3
S'231.0'
p84
sg5
I0
sg6
S'304.0'
p85
sg8
S'302.6'
p86
sg10
S'236.0'
p87
sg12
S'water'
p88
sg14
S'254.2'
p89
sg16
S'258.0'
p90
sg18
S'257.7'
p91
sg20
S'266.4'
p92
sa(dp93
g3
S'260.2'
p94
sg5
I0
sg6
S'367.2'
p95
sg8
S'343.2'
p96
sg10
S'265.2'
p97
sg12
S'water'
p98
sg14
S'283.4'
p99
sg16
S'286.9'
p100
sg18
S'286.9'
p101
sg20
S'291.1'
p102
sa(dp103
g3
S'276.7'
p104
sg5
I0
sg6
S'369.7'
p105
sg8
S'347.4'
p106
sg10
S'281.7'
p107
sg12
S'water'
p108
sg14
S'299.9'
p109
sg16
S'303.4'
p110
sg18
S'303.4'
p111
sg20
S'307.6'
p112
sa(dp113
g3
S'313.0'
p114
sg5
I0
sg6
S'431.0'
p115
sg8
S'409.2'
p116
sg10
S'318.0'
p117
sg12
S'water'
p118
sg14
S'349.0'
p119
sg16
S'343.0'
p120
sg18
S'343.0'
p121
sg20
S'349.0'
p122
sa(dp123
g3
S'321.3'
p124
sg5
I0
sg6
S'423.3'
p125
sg8
S'381.8'
p126
sg10
S'326.3'
p127
sg12
S'water'
p128
sg14
S'344.5'
p129
sg16
S'348.0'
p130
sg18
S'348.0'
p131
sg20
S'352.2'
p132
sa(dp133
g3
S'326.2'
p134
sg5
I0
sg6
S'435.2'
p135
sg8
S'421.4'
p136
sg10
S'331.2'
p137
sg12
S'water'
p138
sg14
S'349.4'
p139
sg16
S'352.9'
p140
sg18
S'352.9'
p141
sg20
S'357.1'
p142
sa(dp143
g3
S'332.5'
p144
sg5
I0
sg6
S'433.5'
p145
sg8
S'387.0'
p146
sg10
S'337.5'
p147
sg12
S'water'
p148
sg14
S'355.7'
p149
sg16
S'359.2'
p150
sg18
S'359.2'
p151
sg20
S'367.9'
p152
sa(dp153
g3
S'347.9'
p154
sg5
I0
sg6
S'444.9'
p155
sg8
S'426.6'
p156
sg10
S'352.9'
p157
sg12
S'water'
p158
sg14
S'371.1'
p159
sg16
S'374.6'
p160
sg18
S'374.6'
p161
sg20
S'378.8'
p162
sa(dp163
g3
S'374.9'
p164
sg5
I0
sg6
S'491.9'
p165
sg8
S'448.8'
p166
sg10
S'379.9'
p167
sg12
S'water'
p168
sg14
S'398.1'
p169
sg16
S'401.6'
p170
sg18
S'401.6'
p171
sg20
S'405.8'
p172
sa(dp173
g3
S'397.9'
p174
sg5
I0
sg6
S'461.0'
p175
sg8
S'461.0'
p176
sg10
S'402.9'
p177
sg12
S'water'
p178
sg14
S'421.1'
p179
sg16
S'424.6'
p180
sg18
S'424.6'
p181
sg20
S'428.8'
p182
sa(dp183
g3
S'398.7'
p184
sg5
S'61.5'
p185
sg6
S'532.2'
p186
sg8
S'532.2'
p187
sg10
S'403.7'
p188
sg12
S'water'
p189
sg14
S'434.7'
p190
sg16
S'428.7'
p191
sg18
S'428.7'
p192
sg20
S'434.7'
p193
sa(dp194
g3
S'400.4'
p195
sg5
S'47.4'
p196
sg6
S'514.8'
p197
sg8
S'514.8'
p198
sg10
S'405.4'
p199
sg12
S'water'
p200
sg14
S'436.4'
p201
sg16
S'430.4'
p202
sg18
S'430.4'
p203
sg20
S'436.4'
p204
sa(dp205
g3
S'400.6'
p206
sg5
I0
sg6
S'466.2'
p207
sg8
S'466.2'
p208
sg10
S'405.6'
p209
sg12
S'water'
p210
sg14
S'432.3'
p211
sg16
S'439.3'
p212
sg18
S'431.6'
p213
sg20
S'447.7'
p214
sa(dp215
g3
S'403.2'
p216
sg5
S'30.3'
p217
sg6
S'500.6'
p218
sg8
S'500.6'
p219
sg10
S'408.2'
p220
sg12
S'water'
p221
sg14
S'443.5'
p222
sg16
S'443.4'
p223
sg18
S'432.4'
p224
sg20
S'453.6'
p225
sa(dp226
g3
S'471.5'
p227
sg5
I0
sg6
S'589.5'
p228
sg8
S'540.2'
p229
sg10
S'476.5'
p230
sg12
S'water'
p231
sg14
S'494.7'
p232
sg16
S'498.2'
p233
sg18
S'498.2'
p234
sg20
S'502.4'
p235
sa(dp236
g3
S'491.1'
p237
sg5
I0
sg6
S'554.4'
p238
sg8
S'554.4'
p239
sg10
S'496.1'
p240
sg12
S'water'
p241
sg14
S'514.3'
p242
sg16
S'517.8'
p243
sg18
S'517.8'
p244
sg20
S'522.0'
p245
sa(dp246
g3
S'502.5'
p247
sg5
S'65.7'
p248
sg6
S'642.2'
p249
sg8
S'642.2'
p250
sg10
S'507.5'
p251
sg12
S'water'
p252
sg14
S'554.5'
p253
sg16
S'536.5'
p254
sg18
S'550.5'
p255
sg20
S'549.5'
p256
sa(dp257
g3
S'536.4'
p258
sg5
I0
sg6
S'606.4'
p259
sg8
S'588.0'
p260
sg10
S'541.4'
p261
sg12
S'water'
p262
sg14
S'559.6'
p263
sg16
S'563.1'
p264
sg18
S'563.1'
p265
sg20
S'567.3'
p266
sa(dp267
g3
S'577.6'
p268
sg5
S'32.0'
p269
sg6
S'699.6'
p270
sg8
S'699.6'
p271
sg10
S'582.6'
p272
sg12
S'water'
p273
sg14
S'629.6'
p274
sg16
S'611.6'
p275
sg18
S'625.6'
p276
sg20
S'624.6'
p277
sa(dp278
g3
S'676.3'
p279
sg5
I0
sg6
S'750.3'
p280
sg8
S'727.9'
p281
sg10
S'681.3'
p282
sg12
S'water'
p283
sg14
S'699.5'
p284
sg16
S'703.0'
p285
sg18
S'703.0'
p286
sg20
S'707.2'
p287
sa(dp288
g3
S'705.0'
p289
sg5
I0
sg6
S'786.0'
p290
sg8
S'783.0'
p291
sg10
S'710.0'
p292
sg12
S'water'
p293
sg14
S'741.0'
p294
sg16
S'735.0'
p295
sg18
S'735.0'
p296
sg20
S'741.0'
p297
sa(dp298
g3
S'724.4'
p299
sg5
I0
sg6
S'812.4'
p300
sg8
S'776.0'
p301
sg10
S'729.4'
p302
sg12
S'water'
p303
sg14
S'747.6'
p304
sg16
S'751.1'
p305
sg18
S'751.1'
p306
sg20
S'755.3'
p307
sa(dp308
g3
S'728.3'
p309
sg5
S'16.0'
p310
sg6
S'850.3'
p311
sg8
S'850.3'
p312
sg10
S'733.3'
p313
sg12
S'water'
p314
sg14
S'780.3'
p315
sg16
S'762.3'
p316
sg18
S'776.3'
p317
sg20
S'775.3'
p318
sa(dp319
g3
S'756.2'
p320
sg5
I0
sg6
S'824.2'
p321
sg8
S'815.6'
p322
sg10
S'761.2'
p323
sg12
S'water'
p324
sg14
S'779.5'
p325
sg16
S'783.0'
p326
sg18
S'783.0'
p327
sg20
S'787.1'
p328
sa(dp329
g3
S'785.3'
p330
sg5
I0
sg6
S'854.3'
p331
sg8
S'836.9'
p332
sg10
S'790.3'
p333
sg12
S'water'
p334
sg14
S'808.5'
p335
sg16
S'812.0'
p336
sg18
S'812.0'
p337
sg20
S'816.2'
p338
sa(dp339
g3
S'817.0'
p340
sg5
I0
sg6
S'899.0'
p341
sg8
S'868.6'
p342
sg10
S'822.0'
p343
sg12
S'water'
p344
sg14
S'840.2'
p345
sg16
S'843.7'
p346
sg18
S'843.7'
p347
sg20
S'847.9'
p348
sa(dp349
g3
S'840.6'
p350
sg5
I0
sg6
S'932.6'
p351
sg8
S'892.2'
p352
sg10
S'845.6'
p353
sg12
S'water'
p354
sg14
S'863.9'
p355
sg16
S'867.4'
p356
sg18
S'867.4'
p357
sg20
S'871.5'
p358
sa(dp359
g3
S'841.2'
p360
sg5
I0
sg6
S'936.2'
p361
sg8
S'892.8'
p362
sg10
S'846.2'
p363
sg12
S'water'
p364
sg14
S'864.4'
p365
sg16
S'867.9'
p366
sg18
S'867.9'
p367
sg20
S'872.1'
p368
sa(dp369
g3
S'873.6'
p370
sg5
I0
sg6
S'945.6'
p371
sg8
S'925.2'
p372
sg10
S'878.6'
p373
sg12
S'water'
p374
sg14
S'896.8'
p375
sg16
S'900.3'
p376
sg18
S'900.3'
p377
sg20
S'904.5'
p378
sa(dp379
g3
S'877.2'
p380
sg5
I0
sg6
S'952.2'
p381
sg8
S'931.9'
p382
sg10
S'882.2'
p383
sg12
S'water'
p384
sg14
S'900.4'
p385
sg16
S'903.9'
p386
sg18
S'903.9'
p387
sg20
S'908.1'
p388
sa(dp389
g3
S'891.2'
p390
sg5
I0
sg6
S'960.2'
p391
sg8
S'942.8'
p392
sg10
S'896.2'
p393
sg12
S'water'
p394
sg14
S'914.4'
p395
sg16
S'917.9'
p396
sg18
S'917.9'
p397
sg20
S'922.1'
p398
sa(dp399
g3
S'976.1'
p400
sg5
I0
sg6
S'1091.1'
p401
sg8
S'1027.7'
p402
sg10
S'981.1'
p403
sg12
S'water'
p404
sg14
S'999.3'
p405
sg16
S'1002.8'
p406
sg18
S'1002.8'
p407
sg20
S'1007.0'
p408
sa(dp409
g3
S'1013.7'
p410
sg5
I0
sg6
S'1075.7'
p411
sg8
S'1065.3'
p412
sg10
S'1018.7'
p413
sg12
S'water'
p414
sg14
S'1036.9'
p415
sg16
S'1040.4'
p416
sg18
S'1040.4'
p417
sg20
S'1044.6'
p418
saF93.752499999999984
F43.985714285714288
I7
t.