((lp1
(dp2
S'Arrival'
p3
S'6.6'
p4
sS'Late'
p5
I0
sS'Depart'
p6
S'71.6'
p7
sS'POWER'
p8
S'58.2'
p9
sS'LANDING'
p10
S'11.6'
p11
sS'WATER'
p12
S'water'
p13
sS'BAGGAGE'
p14
S'29.8'
p15
sS'CATER'
p16
S'33.3'
p17
sS'CLEAN'
p18
S'33.3'
p19
sS'FUEL'
p20
S'37.5'
p21
sa(dp22
g3
S'31.2'
p23
sg5
S'62.0'
p24
sg6
S'153.2'
p25
sg8
S'153.2'
p26
sg10
S'36.2'
p27
sg12
S'water'
p28
sg14
S'83.2'
p29
sg16
S'65.2'
p30
sg18
S'79.2'
p31
sg20
S'78.2'
p32
sa(dp33
g3
S'59.7'
p34
sg5
I0
sg6
S'177.7'
p35
sg8
S'111.3'
p36
sg10
S'64.7'
p37
sg12
S'water'
p38
sg14
S'82.9'
p39
sg16
S'86.4'
p40
sg18
S'86.4'
p41
sg20
S'90.6'
p42
sa(dp43
g3
S'102.2'
p44
sg5
I0
sg6
S'209.2'
p45
sg8
S'153.8'
p46
sg10
S'107.2'
p47
sg12
S'water'
p48
sg14
S'125.4'
p49
sg16
S'128.9'
p50
sg18
S'128.9'
p51
sg20
S'133.1'
p52
sa(dp53
g3
S'107.6'
p54
sg5
I0
sg6
S'201.6'
p55
sg8
S'159.2'
p56
sg10
S'112.6'
p57
sg12
S'water'
p58
sg14
S'130.8'
p59
sg16
S'134.3'
p60
sg18
S'134.3'
p61
sg20
S'138.5'
p62
sa(dp63
g3
S'148.2'
p64
sg5
I0
sg6
S'212.2'
p65
sg8
S'199.8'
p66
sg10
S'153.2'
p67
sg12
S'water'
p68
sg14
S'171.4'
p69
sg16
S'174.9'
p70
sg18
S'174.9'
p71
sg20
S'179.1'
p72
sa(dp73
g3
S'156.7'
p74
sg5
I0
sg6
S'278.7'
p75
sg8
S'278.7'
p76
sg10
S'161.7'
p77
sg12
S'water'
p78
sg14
S'208.7'
p79
sg16
S'190.7'
p80
sg18
S'204.7'
p81
sg20
S'203.7'
p82
sa(dp83
g3
S'193.0'
p84
sg5
I0
sg6
S'257.0'
p85
sg8
S'244.6'
p86
sg10
S'198.0'
p87
sg12
S'water'
p88
sg14
S'216.2'
p89
sg16
S'219.7'
p90
sg18
S'219.7'
p91
sg20
S'223.9'
p92
sa(dp93
g3
S'238.8'
p94
sg5
I0
sg6
S'331.9'
p95
sg8
S'290.4'
p96
sg10
S'243.8'
p97
sg12
S'water'
p98
sg14
S'262.1'
p99
sg16
S'265.6'
p100
sg18
S'265.6'
p101
sg20
S'269.8'
p102
sa(dp103
g3
S'248.1'
p104
sg5
I0
sg6
S'350.1'
p105
sg8
S'299.7'
p106
sg10
S'253.1'
p107
sg12
S'water'
p108
sg14
S'271.3'
p109
sg16
S'274.8'
p110
sg18
S'274.8'
p111
sg20
S'279.0'
p112
sa(dp113
g3
S'250.8'
p114
sg5
I0
sg6
S'358.8'
p115
sg8
S'318.3'
p116
sg10
S'255.8'
p117
sg12
S'water'
p118
sg14
S'274.0'
p119
sg16
S'277.5'
p120
sg18
S'277.5'
p121
sg20
S'281.7'
p122
sa(dp123
g3
S'290.8'
p124
sg5
I0
sg6
S'356.8'
p125
sg8
S'342.4'
p126
sg10
S'295.8'
p127
sg12
S'water'
p128
sg14
S'314.0'
p129
sg16
S'317.5'
p130
sg18
S'317.5'
p131
sg20
S'321.7'
p132
sa(dp133
g3
S'409.6'
p134
sg5
I0
sg6
S'496.6'
p135
sg8
S'461.2'
p136
sg10
S'414.6'
p137
sg12
S'water'
p138
sg14
S'432.8'
p139
sg16
S'436.3'
p140
sg18
S'436.3'
p141
sg20
S'440.5'
p142
sa(dp143
g3
S'427.9'
p144
sg5
I0
sg6
S'501.9'
p145
sg8
S'479.5'
p146
sg10
S'432.9'
p147
sg12
S'water'
p148
sg14
S'451.1'
p149
sg16
S'454.6'
p150
sg18
S'454.6'
p151
sg20
S'458.8'
p152
sa(dp153
g3
S'435.6'
p154
sg5
I0
sg6
S'546.6'
p155
sg8
S'487.2'
p156
sg10
S'440.6'
p157
sg12
S'water'
p158
sg14
S'458.8'
p159
sg16
S'462.3'
p160
sg18
S'462.3'
p161
sg20
S'466.5'
p162
sa(dp163
g3
S'462.5'
p164
sg5
I0
sg6
S'526.5'
p165
sg8
S'514.1'
p166
sg10
S'467.5'
p167
sg12
S'water'
p168
sg14
S'485.7'
p169
sg16
S'489.2'
p170
sg18
S'489.2'
p171
sg20
S'493.4'
p172
sa(dp173
g3
S'510.4'
p174
sg5
I0
sg6
S'606.4'
p175
sg8
S'562.0'
p176
sg10
S'515.4'
p177
sg12
S'water'
p178
sg14
S'533.6'
p179
sg16
S'537.1'
p180
sg18
S'537.1'
p181
sg20
S'541.3'
p182
sa(dp183
g3
S'540.1'
p184
sg5
I0
sg6
S'637.1'
p185
sg8
S'591.7'
p186
sg10
S'545.1'
p187
sg12
S'water'
p188
sg14
S'563.3'
p189
sg16
S'566.8'
p190
sg18
S'566.8'
p191
sg20
S'571.0'
p192
sa(dp193
g3
S'575.5'
p194
sg5
I0
sg6
S'691.5'
p195
sg8
S'627.1'
p196
sg10
S'580.5'
p197
sg12
S'water'
p198
sg14
S'598.7'
p199
sg16
S'602.2'
p200
sg18
S'602.2'
p201
sg20
S'606.4'
p202
sa(dp203
g3
S'610.4'
p204
sg5
I0
sg6
S'714.4'
p205
sg8
S'662.0'
p206
sg10
S'615.4'
p207
sg12
S'water'
p208
sg14
S'633.6'
p209
sg16
S'637.1'
p210
sg18
S'637.1'
p211
sg20
S'641.3'
p212
sa(dp213
g3
S'616.5'
p214
sg5
I0
sg6
S'689.5'
p215
sg8
S'668.1'
p216
sg10
S'621.5'
p217
sg12
S'water'
p218
sg14
S'639.7'
p219
sg16
S'643.2'
p220
sg18
S'643.2'
p221
sg20
S'647.4'
p222
sa(dp223
g3
S'694.5'
p224
sg5
I0
sg6
S'759.5'
p225
sg8
S'746.1'
p226
sg10
S'699.5'
p227
sg12
S'water'
p228
sg14
S'717.7'
p229
sg16
S'721.2'
p230
sg18
S'721.2'
p231
sg20
S'725.4'
p232
sa(dp233
g3
S'760.3'
p234
sg5
I0
sg6
S'875.3'
p235
sg8
S'811.9'
p236
sg10
S'765.3'
p237
sg12
S'water'
p238
sg14
S'783.5'
p239
sg16
S'787.0'
p240
sg18
S'787.0'
p241
sg20
S'791.2'
p242
sa(dp243
g3
S'768.2'
p244
sg5
I0
sg6
S'859.2'
p245
sg8
S'819.8'
p246
sg10
S'773.2'
p247
sg12
S'water'
p248
sg14
S'791.4'
p249
sg16
S'794.9'
p250
sg18
S'794.9'
p251
sg20
S'799.1'
p252
sa(dp253
g3
S'772.9'
p254
sg5
I0
sg6
S'843.9'
p255
sg8
S'824.5'
p256
sg10
S'777.9'
p257
sg12
S'water'
p258
sg14
S'796.1'
p259
sg16
S'799.6'
p260
sg18
S'799.6'
p261
sg20
S'803.8'
p262
sa(dp263
g3
S'791.6'
p264
sg5
I0
sg6
S'910.6'
p265
sg8
S'859.4'
p266
sg10
S'796.6'
p267
sg12
S'water'
p268
sg14
S'814.8'
p269
sg16
S'818.3'
p270
sg18
S'818.3'
p271
sg20
S'822.5'
p272
sa(dp273
g3
S'798.5'
p274
sg5
I0
sg6
S'862.5'
p275
sg8
S'851.5'
p276
sg10
S'803.5'
p277
sg12
S'water'
p278
sg14
S'821.7'
p279
sg16
S'825.2'
p280
sg18
S'825.2'
p281
sg20
S'829.4'
p282
sa(dp283
g3
S'815.3'
p284
sg5
I0
sg6
S'931.3'
p285
sg8
S'866.9'
p286
sg10
S'820.3'
p287
sg12
S'water'
p288
sg14
S'838.5'
p289
sg16
S'842.0'
p290
sg18
S'842.0'
p291
sg20
S'846.2'
p292
sa(dp293
g3
S'827.9'
p294
sg5
I0
sg6
S'892.9'
p295
sg8
S'891.1'
p296
sg10
S'832.9'
p297
sg12
S'water'
p298
sg14
S'851.1'
p299
sg16
S'854.6'
p300
sg18
S'854.6'
p301
sg20
S'858.8'
p302
sa(dp303
g3
S'844.0'
p304
sg5
I0
sg6
S'944.0'
p305
sg8
S'899.0'
p306
sg10
S'849.0'
p307
sg12
S'water'
p308
sg14
S'867.2'
p309
sg16
S'870.8'
p310
sg18
S'870.8'
p311
sg20
S'874.9'
p312
sa(dp313
g3
S'866.6'
p314
sg5
S'34.0'
p315
sg6
S'988.6'
p316
sg8
S'988.6'
p317
sg10
S'871.6'
p318
sg12
S'water'
p319
sg14
S'918.6'
p320
sg16
S'900.6'
p321
sg18
S'914.6'
p322
sg20
S'913.6'
p323
sa(dp324
g3
S'885.9'
p325
sg5
I0
sg6
S'1000.9'
p326
sg8
S'937.5'
p327
sg10
S'890.9'
p328
sg12
S'water'
p329
sg14
S'909.1'
p330
sg16
S'912.6'
p331
sg18
S'912.6'
p332
sg20
S'916.8'
p333
sa(dp334
g3
S'902.3'
p335
sg5
I0
sg6
S'968.3'
p336
sg8
S'953.9'
p337
sg10
S'907.3'
p338
sg12
S'water'
p339
sg14
S'925.5'
p340
sg16
S'929.0'
p341
sg18
S'929.0'
p342
sg20
S'933.2'
p343
sa(dp344
g3
S'931.8'
p345
sg5
I0
sg6
S'1036.8'
p346
sg8
S'983.4'
p347
sg10
S'936.8'
p348
sg12
S'water'
p349
sg14
S'955.0'
p350
sg16
S'958.5'
p351
sg18
S'958.5'
p352
sg20
S'962.7'
p353
sa(dp354
g3
S'955.7'
p355
sg5
I0
sg6
S'1027.7'
p356
sg8
S'1007.3'
p357
sg10
S'960.7'
p358
sg12
S'water'
p359
sg14
S'978.9'
p360
sg16
S'982.4'
p361
sg18
S'982.4'
p362
sg20
S'986.6'
p363
sa(dp364
g3
S'966.9'
p365
sg5
I0
sg6
S'1048.9'
p366
sg8
S'1023.0'
p367
sg10
S'971.9'
p368
sg12
S'water'
p369
sg14
S'990.1'
p370
sg16
S'993.6'
p371
sg18
S'993.6'
p372
sg20
S'997.8'
p373
sa(dp374
g3
S'995.4'
p375
sg5
I0
sg6
S'1085.4'
p376
sg8
S'1047.0'
p377
sg10
S'1000.4'
p378
sg12
S'water'
p379
sg14
S'1018.6'
p380
sg16
S'1022.1'
p381
sg18
S'1022.1'
p382
sg20
S'1026.3'
p383
sa(dp384
g3
S'1042.0'
p385
sg5
I0
sg6
S'1137.0'
p386
sg8
S'1093.5'
p387
sg10
S'1047.0'
p388
sg12
S'water'
p389
sg14
S'1065.2'
p390
sg16
S'1068.7'
p391
sg18
S'1068.7'
p392
sg20
S'1072.9'
p393
sa(dp394
g3
S'1072.3'
p395
sg5
I0
sg6
S'1171.3'
p396
sg8
S'1123.9'
p397
sg10
S'1077.3'
p398
sg12
S'water'
p399
sg14
S'1095.5'
p400
sg16
S'1099.0'
p401
sg18
S'1099.0'
p402
sg20
S'1103.2'
p403
sa(dp404
g3
S'1076.3'
p405
sg5
I0
sg6
S'1147.3'
p406
sg8
S'1127.9'
p407
sg10
S'1081.3'
p408
sg12
S'water'
p409
sg14
S'1099.5'
p410
sg16
S'1103.0'
p411
sg18
S'1103.0'
p412
sg20
S'1107.2'
p413
saF91.752499999999998
F48
I2
t.