((lp1
(dp2
S'Arrival'
p3
S'34.9'
p4
sS'Late'
p5
I0
sS'Depart'
p6
S'117.9'
p7
sS'POWER'
p8
S'90.9'
p9
sS'Power_time'
p10
S'44.0'
p11
sS'Bag_time'
p12
S'16.0'
p13
sS'WATER'
p14
S'water'
p15
sS'BAGGAGE'
p16
S'62.9'
p17
sS'CATER'
p18
S'68.9'
p19
sS'LANDING'
p20
S'39.9'
p21
sS'CLEAN'
p22
S'64.9'
p23
sS'FUEL'
p24
S'70.9'
p25
sa(dp26
g3
S'39.2'
p27
sg5
I0
sg6
S'128.2'
p28
sg8
S'95.2'
p29
sg10
S'44.0'
p30
sg12
S'16.0'
p31
sg14
S'water'
p32
sg16
S'67.2'
p33
sg18
S'73.2'
p34
sg20
S'44.2'
p35
sg22
S'69.2'
p36
sg24
S'75.2'
p37
sa(dp38
g3
S'45.1'
p39
sg5
I0
sg6
S'143.1'
p40
sg8
S'101.1'
p41
sg10
S'44.0'
p42
sg12
S'16.0'
p43
sg14
S'water'
p44
sg16
S'73.1'
p45
sg18
S'79.1'
p46
sg20
S'50.1'
p47
sg22
S'75.1'
p48
sg24
S'81.1'
p49
sa(dp50
g3
S'47.2'
p51
sg5
I0
sg6
S'112.2'
p52
sg8
S'98.8'
p53
sg10
S'39.6'
p54
sg12
S'11.2'
p55
sg14
S'water'
p56
sg16
S'70.4'
p57
sg18
S'76.7'
p58
sg20
S'52.2'
p59
sg22
S'73.9'
p60
sg24
S'78.1'
p61
sa(dp62
g3
S'59.4'
p63
sg5
I0
sg6
S'161.4'
p64
sg8
S'115.4'
p65
sg10
S'44.0'
p66
sg12
S'16.0'
p67
sg14
S'water'
p68
sg16
S'87.4'
p69
sg18
S'93.4'
p70
sg20
S'64.4'
p71
sg22
S'89.4'
p72
sg24
S'95.4'
p73
sa(dp74
g3
S'60.7'
p75
sg5
I0
sg6
S'134.9'
p76
sg8
S'134.9'
p77
sg10
S'44.0'
p78
sg12
S'16.0'
p79
sg14
S'water'
p80
sg16
S'88.7'
p81
sg18
S'94.7'
p82
sg20
S'65.7'
p83
sg22
S'90.7'
p84
sg24
S'96.7'
p85
sa(dp86
g3
S'73.2'
p87
sg5
I0
sg6
S'150.2'
p88
sg8
S'139.2'
p89
sg10
S'44.0'
p90
sg12
S'16.0'
p91
sg14
S'water'
p92
sg16
S'101.2'
p93
sg18
S'107.2'
p94
sg20
S'78.2'
p95
sg22
S'103.2'
p96
sg24
S'109.2'
p97
sa(dp98
g3
S'162.7'
p99
sg5
I0
sg6
S'256.6'
p100
sg8
S'218.7'
p101
sg10
S'44.0'
p102
sg12
S'16.0'
p103
sg14
S'water'
p104
sg16
S'190.7'
p105
sg18
S'196.7'
p106
sg20
S'167.7'
p107
sg22
S'192.7'
p108
sg24
S'198.7'
p109
sa(dp110
g3
S'221.2'
p111
sg5
I0
sg6
S'305.2'
p112
sg8
S'277.2'
p113
sg10
S'44.0'
p114
sg12
S'16.0'
p115
sg14
S'water'
p116
sg16
S'249.2'
p117
sg18
S'255.2'
p118
sg20
S'226.2'
p119
sg22
S'251.2'
p120
sg24
S'257.2'
p121
sa(dp122
g3
S'234.2'
p123
sg5
I0
sg6
S'330.2'
p124
sg8
S'290.2'
p125
sg10
S'44.0'
p126
sg12
S'16.0'
p127
sg14
S'water'
p128
sg16
S'262.2'
p129
sg18
S'268.2'
p130
sg20
S'239.2'
p131
sg22
S'264.2'
p132
sg24
S'270.2'
p133
sa(dp134
g3
S'267.9'
p135
sg5
I0
sg6
S'356.9'
p136
sg8
S'323.9'
p137
sg10
S'44.0'
p138
sg12
S'16.0'
p139
sg14
S'water'
p140
sg16
S'295.9'
p141
sg18
S'301.9'
p142
sg20
S'272.9'
p143
sg22
S'297.9'
p144
sg24
S'303.9'
p145
sa(dp146
g3
S'285.1'
p147
sg5
I0
sg6
S'392.1'
p148
sg8
S'341.1'
p149
sg10
S'44.0'
p150
sg12
S'16.0'
p151
sg14
S'water'
p152
sg16
S'313.1'
p153
sg18
S'319.1'
p154
sg20
S'290.1'
p155
sg22
S'315.1'
p156
sg24
S'321.1'
p157
sa(dp158
g3
S'302.3'
p159
sg5
I0
sg6
S'404.3'
p160
sg8
S'358.3'
p161
sg10
S'44.0'
p162
sg12
S'16.0'
p163
sg14
S'water'
p164
sg16
S'330.3'
p165
sg18
S'336.3'
p166
sg20
S'307.3'
p167
sg22
S'332.3'
p168
sg24
S'338.3'
p169
sa(dp170
g3
S'322.4'
p171
sg5
I0
sg6
S'421.4'
p172
sg8
S'388.4'
p173
sg10
S'54.0'
p174
sg12
S'28.0'
p175
sg14
S'water'
p176
sg16
S'362.4'
p177
sg18
S'371.4'
p178
sg20
S'327.4'
p179
sg22
S'370.4'
p180
sg24
S'369.4'
p181
sa(dp182
g3
S'338.8'
p183
sg5
I0
sg6
S'423.8'
p184
sg8
S'394.8'
p185
sg10
S'44.0'
p186
sg12
S'16.0'
p187
sg14
S'water'
p188
sg16
S'366.8'
p189
sg18
S'372.8'
p190
sg20
S'343.8'
p191
sg22
S'368.8'
p192
sg24
S'374.8'
p193
sa(dp194
g3
S'357.0'
p195
sg5
I0
sg6
S'425.0'
p196
sg8
S'413.0'
p197
sg10
S'44.0'
p198
sg12
S'16.0'
p199
sg14
S'water'
p200
sg16
S'385.0'
p201
sg18
S'391.0'
p202
sg20
S'362.0'
p203
sg22
S'387.0'
p204
sg24
S'393.0'
p205
sa(dp206
g3
S'423.5'
p207
sg5
I0
sg6
S'515.5'
p208
sg8
S'479.5'
p209
sg10
S'44.0'
p210
sg12
S'16.0'
p211
sg14
S'water'
p212
sg16
S'451.5'
p213
sg18
S'457.5'
p214
sg20
S'428.5'
p215
sg22
S'453.5'
p216
sg24
S'459.5'
p217
sa(dp218
g3
S'453.9'
p219
sg5
I0
sg6
S'527.0'
p220
sg8
S'509.9'
p221
sg10
S'44.0'
p222
sg12
S'16.0'
p223
sg14
S'water'
p224
sg16
S'481.9'
p225
sg18
S'487.9'
p226
sg20
S'458.9'
p227
sg22
S'483.9'
p228
sg24
S'489.9'
p229
sa(dp230
g3
S'463.1'
p231
sg5
I0
sg6
S'559.0'
p232
sg8
S'519.0'
p233
sg10
S'44.0'
p234
sg12
S'16.0'
p235
sg14
S'water'
p236
sg16
S'491.1'
p237
sg18
S'497.1'
p238
sg20
S'468.1'
p239
sg22
S'493.1'
p240
sg24
S'499.1'
p241
sa(dp242
g3
S'490.6'
p243
sg5
I0
sg6
S'571.6'
p244
sg8
S'546.6'
p245
sg10
S'44.0'
p246
sg12
S'16.0'
p247
sg14
S'water'
p248
sg16
S'518.6'
p249
sg18
S'524.6'
p250
sg20
S'495.6'
p251
sg22
S'520.6'
p252
sg24
S'526.6'
p253
sa(dp254
g3
S'528.7'
p255
sg5
I0
sg6
S'647.7'
p256
sg8
S'584.7'
p257
sg10
S'44.0'
p258
sg12
S'16.0'
p259
sg14
S'water'
p260
sg16
S'556.7'
p261
sg18
S'562.7'
p262
sg20
S'533.7'
p263
sg22
S'558.7'
p264
sg24
S'564.7'
p265
sa(dp266
g3
S'550.7'
p267
sg5
I0
sg6
S'646.7'
p268
sg8
S'606.7'
p269
sg10
S'44.0'
p270
sg12
S'16.0'
p271
sg14
S'water'
p272
sg16
S'578.7'
p273
sg18
S'584.7'
p274
sg20
S'555.7'
p275
sg22
S'580.7'
p276
sg24
S'586.7'
p277
sa(dp278
g3
S'568.2'
p279
sg5
I0
sg6
S'673.2'
p280
sg8
S'624.2'
p281
sg10
S'44.0'
p282
sg12
S'16.0'
p283
sg14
S'water'
p284
sg16
S'596.2'
p285
sg18
S'602.2'
p286
sg20
S'573.2'
p287
sg22
S'598.2'
p288
sg24
S'604.2'
p289
sa(dp290
g3
S'577.8'
p291
sg5
I0
sg6
S'695.8'
p292
sg8
S'633.8'
p293
sg10
S'44.0'
p294
sg12
S'16.0'
p295
sg14
S'water'
p296
sg16
S'605.8'
p297
sg18
S'611.8'
p298
sg20
S'582.8'
p299
sg22
S'607.8'
p300
sg24
S'613.8'
p301
sa(dp302
g3
S'618.0'
p303
sg5
I0
sg6
S'697.0'
p304
sg8
S'674.0'
p305
sg10
S'44.0'
p306
sg12
S'16.0'
p307
sg14
S'water'
p308
sg16
S'646.0'
p309
sg18
S'652.0'
p310
sg20
S'623.0'
p311
sg22
S'648.0'
p312
sg24
S'654.0'
p313
sa(dp314
g3
S'658.1'
p315
sg5
I0
sg6
S'783.1'
p316
sg8
S'714.1'
p317
sg10
S'44.0'
p318
sg12
S'16.0'
p319
sg14
S'water'
p320
sg16
S'686.1'
p321
sg18
S'692.1'
p322
sg20
S'663.1'
p323
sg22
S'688.1'
p324
sg24
S'694.1'
p325
sa(dp326
g3
S'669.4'
p327
sg5
I0
sg6
S'752.4'
p328
sg8
S'725.4'
p329
sg10
S'44.0'
p330
sg12
S'16.0'
p331
sg14
S'water'
p332
sg16
S'697.4'
p333
sg18
S'703.4'
p334
sg20
S'674.4'
p335
sg22
S'699.4'
p336
sg24
S'705.4'
p337
sa(dp338
g3
S'688.9'
p339
sg5
I0
sg6
S'770.9'
p340
sg8
S'744.9'
p341
sg10
S'44.0'
p342
sg12
S'16.0'
p343
sg14
S'water'
p344
sg16
S'716.9'
p345
sg18
S'722.9'
p346
sg20
S'693.9'
p347
sg22
S'718.9'
p348
sg24
S'724.9'
p349
sa(dp350
g3
S'758.2'
p351
sg5
I0
sg6
S'828.2'
p352
sg8
S'814.2'
p353
sg10
S'44.0'
p354
sg12
S'16.0'
p355
sg14
S'water'
p356
sg16
S'786.2'
p357
sg18
S'792.2'
p358
sg20
S'763.2'
p359
sg22
S'788.2'
p360
sg24
S'794.2'
p361
sa(dp362
g3
S'774.6'
p363
sg5
I0
sg6
S'875.6'
p364
sg8
S'830.6'
p365
sg10
S'44.0'
p366
sg12
S'16.0'
p367
sg14
S'water'
p368
sg16
S'802.6'
p369
sg18
S'808.6'
p370
sg20
S'779.6'
p371
sg22
S'804.6'
p372
sg24
S'810.6'
p373
sa(dp374
g3
S'778.1'
p375
sg5
I0
sg6
S'895.1'
p376
sg8
S'834.1'
p377
sg10
S'44.0'
p378
sg12
S'16.0'
p379
sg14
S'water'
p380
sg16
S'806.1'
p381
sg18
S'812.1'
p382
sg20
S'783.1'
p383
sg22
S'808.1'
p384
sg24
S'814.1'
p385
sa(dp386
g3
S'778.2'
p387
sg5
I0
sg6
S'892.2'
p388
sg8
S'834.2'
p389
sg10
S'44.0'
p390
sg12
S'16.0'
p391
sg14
S'water'
p392
sg16
S'806.2'
p393
sg18
S'812.2'
p394
sg20
S'783.2'
p395
sg22
S'808.2'
p396
sg24
S'814.2'
p397
sa(dp398
g3
S'874.5'
p399
sg5
I0
sg6
S'990.5'
p400
sg8
S'930.5'
p401
sg10
S'44.0'
p402
sg12
S'16.0'
p403
sg14
S'water'
p404
sg16
S'902.5'
p405
sg18
S'908.5'
p406
sg20
S'879.5'
p407
sg22
S'904.5'
p408
sg24
S'910.5'
p409
sa(dp410
g3
S'899.0'
p411
sg5
I0
sg6
S'975.0'
p412
sg8
S'955.0'
p413
sg10
S'44.0'
p414
sg12
S'16.0'
p415
sg14
S'water'
p416
sg16
S'927.0'
p417
sg18
S'933.0'
p418
sg20
S'904.0'
p419
sg22
S'929.0'
p420
sg24
S'935.0'
p421
sa(dp422
g3
S'945.7'
p423
sg5
I0
sg6
S'1058.7'
p424
sg8
S'1001.7'
p425
sg10
S'44.0'
p426
sg12
S'16.0'
p427
sg14
S'water'
p428
sg16
S'973.7'
p429
sg18
S'979.7'
p430
sg20
S'950.7'
p431
sg22
S'975.7'
p432
sg24
S'981.7'
p433
sa(dp434
g3
S'962.4'
p435
sg5
I0
sg6
S'1084.4'
p436
sg8
S'1018.4'
p437
sg10
S'44.0'
p438
sg12
S'16.0'
p439
sg14
S'water'
p440
sg16
S'990.4'
p441
sg18
S'996.4'
p442
sg20
S'967.4'
p443
sg22
S'992.4'
p444
sg24
S'998.4'
p445
sa(dp446
g3
S'963.5'
p447
sg5
I0
sg6
S'1084.5'
p448
sg8
S'1019.5'
p449
sg10
S'44.0'
p450
sg12
S'16.0'
p451
sg14
S'water'
p452
sg16
S'991.5'
p453
sg18
S'997.5'
p454
sg20
S'968.5'
p455
sg22
S'993.5'
p456
sg24
S'999.5'
p457
sa(dp458
g3
S'969.0'
p459
sg5
I0
sg6
S'1087.0'
p460
sg8
S'1025.0'
p461
sg10
S'44.0'
p462
sg12
S'16.0'
p463
sg14
S'water'
p464
sg16
S'997.0'
p465
sg18
S'1003.0'
p466
sg20
S'974.0'
p467
sg22
S'999.0'
p468
sg24
S'1005.0'
p469
sa(dp470
g3
S'1017.4'
p471
sg5
I0
sg6
S'1087.4'
p472
sg8
S'1073.4'
p473
sg10
S'44.0'
p474
sg12
S'16.0'
p475
sg14
S'water'
p476
sg16
S'1045.4'
p477
sg18
S'1051.4'
p478
sg20
S'1022.4'
p479
sg22
S'1047.4'
p480
sg24
S'1053.4'
p481
sa(dp482
g3
S'1074.3'
p483
sg5
I0
sg6
S'1174.3'
p484
sg8
S'1130.3'
p485
sg10
S'44.0'
p486
sg12
S'16.0'
p487
sg14
S'water'
p488
sg16
S'1102.3'
p489
sg18
S'1108.3'
p490
sg20
S'1079.3'
p491
sg22
S'1104.3'
p492
sg24
S'1110.3'
p493
saF94.977499999999992
I0
I0
t.