((lp1
(dp2
S'Arrival'
p3
S'14.1'
p4
sS'Late'
p5
I0
sS'Depart'
p6
S'124.1'
p7
sS'POWER'
p8
S'65.7'
p9
sS'LANDING'
p10
S'19.1'
p11
sS'WATER'
p12
S'water'
p13
sS'BAGGAGE'
p14
S'37.3'
p15
sS'CATER'
p16
S'40.8'
p17
sS'CLEAN'
p18
S'40.8'
p19
sS'FUEL'
p20
S'45.0'
p21
sa(dp22
g3
S'16.0'
p23
sg5
I0
sg6
S'102.0'
p24
sg8
S'67.6'
p25
sg10
S'21.0'
p26
sg12
S'water'
p27
sg14
S'39.2'
p28
sg16
S'42.7'
p29
sg18
S'42.7'
p30
sg20
S'46.9'
p31
sa(dp32
g3
S'42.9'
p33
sg5
S'34.0'
p34
sg6
S'164.9'
p35
sg8
S'164.9'
p36
sg10
S'47.9'
p37
sg12
S'water'
p38
sg14
S'94.9'
p39
sg16
S'76.9'
p40
sg18
S'90.9'
p41
sg20
S'89.9'
p42
sa(dp43
g3
S'68.7'
p44
sg5
I0
sg6
S'132.7'
p45
sg8
S'120.3'
p46
sg10
S'73.7'
p47
sg12
S'water'
p48
sg14
S'91.9'
p49
sg16
S'95.4'
p50
sg18
S'95.4'
p51
sg20
S'99.6'
p52
sa(dp53
g3
S'73.7'
p54
sg5
I0
sg6
S'150.7'
p55
sg8
S'125.3'
p56
sg10
S'78.7'
p57
sg12
S'water'
p58
sg14
S'96.9'
p59
sg16
S'100.4'
p60
sg18
S'100.4'
p61
sg20
S'104.6'
p62
sa(dp63
g3
S'74.0'
p64
sg5
I0
sg6
S'175.0'
p65
sg8
S'164.9'
p66
sg10
S'79.0'
p67
sg12
S'water'
p68
sg14
S'103.1'
p69
sg16
S'100.7'
p70
sg18
S'100.7'
p71
sg20
S'108.8'
p72
sa(dp73
g3
S'80.9'
p74
sg5
I0
sg6
S'199.5'
p75
sg8
S'199.5'
p76
sg10
S'85.9'
p77
sg12
S'water'
p78
sg14
S'106.1'
p79
sg16
S'110.1'
p80
sg18
S'107.6'
p81
sg20
S'118.5'
p82
sa(dp83
g3
S'97.6'
p84
sg5
I0
sg6
S'169.6'
p85
sg8
S'159.9'
p86
sg10
S'102.6'
p87
sg12
S'water'
p88
sg14
S'120.8'
p89
sg16
S'124.3'
p90
sg18
S'124.3'
p91
sg20
S'128.5'
p92
sa(dp93
g3
S'181.4'
p94
sg5
S'16.0'
p95
sg6
S'303.4'
p96
sg8
S'303.4'
p97
sg10
S'186.4'
p98
sg12
S'water'
p99
sg14
S'233.4'
p100
sg16
S'215.4'
p101
sg18
S'229.4'
p102
sg20
S'228.4'
p103
sa(dp104
g3
S'211.2'
p105
sg5
I0
sg6
S'325.1'
p106
sg8
S'262.8'
p107
sg10
S'216.2'
p108
sg12
S'water'
p109
sg14
S'234.3'
p110
sg16
S'237.8'
p111
sg18
S'237.8'
p112
sg20
S'242.1'
p113
sa(dp114
g3
S'211.4'
p115
sg5
I0
sg6
S'289.4'
p116
sg8
S'263.0'
p117
sg10
S'216.4'
p118
sg12
S'water'
p119
sg14
S'234.6'
p120
sg16
S'238.1'
p121
sg18
S'238.1'
p122
sg20
S'242.3'
p123
sa(dp124
g3
S'241.0'
p125
sg5
I0
sg6
S'361.0'
p126
sg8
S'302.6'
p127
sg10
S'246.0'
p128
sg12
S'water'
p129
sg14
S'264.2'
p130
sg16
S'267.7'
p131
sg18
S'267.7'
p132
sg20
S'271.9'
p133
sa(dp134
g3
S'242.4'
p135
sg5
I0
sg6
S'319.4'
p136
sg8
S'302.4'
p137
sg10
S'247.4'
p138
sg12
S'water'
p139
sg14
S'265.6'
p140
sg16
S'269.1'
p141
sg18
S'269.1'
p142
sg20
S'273.3'
p143
sa(dp144
g3
S'317.9'
p145
sg5
I0
sg6
S'413.9'
p146
sg8
S'369.5'
p147
sg10
S'322.9'
p148
sg12
S'water'
p149
sg14
S'341.1'
p150
sg16
S'344.6'
p151
sg18
S'344.6'
p152
sg20
S'348.8'
p153
sa(dp154
g3
S'331.7'
p155
sg5
I0
sg6
S'415.7'
p156
sg8
S'383.3'
p157
sg10
S'336.7'
p158
sg12
S'water'
p159
sg14
S'354.9'
p160
sg16
S'358.4'
p161
sg18
S'358.4'
p162
sg20
S'362.6'
p163
sa(dp164
g3
S'360.2'
p165
sg5
I0
sg6
S'445.2'
p166
sg8
S'411.8'
p167
sg10
S'365.2'
p168
sg12
S'water'
p169
sg14
S'383.4'
p170
sg16
S'386.9'
p171
sg18
S'386.9'
p172
sg20
S'391.1'
p173
sa(dp174
g3
S'431.4'
p175
sg5
I0
sg6
S'502.4'
p176
sg8
S'483.0'
p177
sg10
S'436.4'
p178
sg12
S'water'
p179
sg14
S'454.6'
p180
sg16
S'458.1'
p181
sg18
S'458.1'
p182
sg20
S'462.3'
p183
sa(dp184
g3
S'447.4'
p185
sg5
I0
sg6
S'557.4'
p186
sg8
S'499.0'
p187
sg10
S'452.4'
p188
sg12
S'water'
p189
sg14
S'470.6'
p190
sg16
S'474.1'
p191
sg18
S'474.1'
p192
sg20
S'478.3'
p193
sa(dp194
g3
S'460.5'
p195
sg5
I0
sg6
S'525.5'
p196
sg8
S'512.1'
p197
sg10
S'465.5'
p198
sg12
S'water'
p199
sg14
S'483.7'
p200
sg16
S'487.2'
p201
sg18
S'487.2'
p202
sg20
S'491.4'
p203
sa(dp204
g3
S'462.1'
p205
sg5
I0
sg6
S'560.0'
p206
sg8
S'522.6'
p207
sg10
S'467.1'
p208
sg12
S'water'
p209
sg14
S'485.2'
p210
sg16
S'488.8'
p211
sg18
S'488.8'
p212
sg20
S'492.9'
p213
sa(dp214
g3
S'483.2'
p215
sg5
I0
sg6
S'596.2'
p216
sg8
S'538.6'
p217
sg10
S'488.2'
p218
sg12
S'water'
p219
sg14
S'506.4'
p220
sg16
S'509.9'
p221
sg18
S'509.9'
p222
sg20
S'514.1'
p223
sa(dp224
g3
S'504.2'
p225
sg5
I0
sg6
S'584.2'
p226
sg8
S'555.8'
p227
sg10
S'509.2'
p228
sg12
S'water'
p229
sg14
S'527.4'
p230
sg16
S'530.9'
p231
sg18
S'530.9'
p232
sg20
S'535.1'
p233
sa(dp234
g3
S'524.5'
p235
sg5
I0
sg6
S'624.5'
p236
sg8
S'576.1'
p237
sg10
S'529.5'
p238
sg12
S'water'
p239
sg14
S'547.8'
p240
sg16
S'551.2'
p241
sg18
S'551.2'
p242
sg20
S'555.4'
p243
sa(dp244
g3
S'544.0'
p245
sg5
I0
sg6
S'655.0'
p246
sg8
S'595.6'
p247
sg10
S'549.0'
p248
sg12
S'water'
p249
sg14
S'567.2'
p250
sg16
S'570.8'
p251
sg18
S'570.8'
p252
sg20
S'574.9'
p253
sa(dp254
g3
S'596.0'
p255
sg5
I0
sg6
S'712.0'
p256
sg8
S'647.6'
p257
sg10
S'601.0'
p258
sg12
S'water'
p259
sg14
S'619.2'
p260
sg16
S'622.7'
p261
sg18
S'622.7'
p262
sg20
S'626.9'
p263
sa(dp264
g3
S'614.1'
p265
sg5
S'57.0'
p266
sg6
S'736.1'
p267
sg8
S'736.1'
p268
sg10
S'619.1'
p269
sg12
S'water'
p270
sg14
S'666.1'
p271
sg16
S'648.1'
p272
sg18
S'662.1'
p273
sg20
S'661.1'
p274
sa(dp275
g3
S'636.8'
p276
sg5
I0
sg6
S'738.8'
p277
sg8
S'688.4'
p278
sg10
S'641.8'
p279
sg12
S'water'
p280
sg14
S'660.0'
p281
sg16
S'663.5'
p282
sg18
S'663.5'
p283
sg20
S'667.7'
p284
sa(dp285
g3
S'647.2'
p286
sg5
I0
sg6
S'732.2'
p287
sg8
S'698.8'
p288
sg10
S'652.2'
p289
sg12
S'water'
p290
sg14
S'670.4'
p291
sg16
S'673.9'
p292
sg18
S'673.9'
p293
sg20
S'678.1'
p294
sa(dp295
g3
S'656.0'
p296
sg5
I0
sg6
S'733.0'
p297
sg8
S'728.0'
p298
sg10
S'661.0'
p299
sg12
S'water'
p300
sg14
S'679.2'
p301
sg16
S'682.7'
p302
sg18
S'682.7'
p303
sg20
S'686.9'
p304
sa(dp305
g3
S'668.6'
p306
sg5
S'72.1'
p307
sg6
S'808.8'
p308
sg8
S'808.8'
p309
sg10
S'673.6'
p310
sg12
S'water'
p311
sg14
S'720.6'
p312
sg16
S'702.6'
p313
sg18
S'716.6'
p314
sg20
S'715.6'
p315
sa(dp316
g3
S'722.3'
p317
sg5
I0
sg6
S'796.3'
p318
sg8
S'773.9'
p319
sg10
S'727.3'
p320
sg12
S'water'
p321
sg14
S'745.5'
p322
sg16
S'749.0'
p323
sg18
S'749.0'
p324
sg20
S'753.2'
p325
sa(dp326
g3
S'730.7'
p327
sg5
I0
sg6
S'797.7'
p328
sg8
S'782.3'
p329
sg10
S'735.7'
p330
sg12
S'water'
p331
sg14
S'753.9'
p332
sg16
S'757.4'
p333
sg18
S'757.4'
p334
sg20
S'761.6'
p335
sa(dp336
g3
S'750.9'
p337
sg5
I0
sg6
S'824.9'
p338
sg8
S'813.5'
p339
sg10
S'755.9'
p340
sg12
S'water'
p341
sg14
S'774.1'
p342
sg16
S'777.6'
p343
sg18
S'777.6'
p344
sg20
S'781.8'
p345
sa(dp346
g3
S'816.3'
p347
sg5
I0
sg6
S'935.3'
p348
sg8
S'867.9'
p349
sg10
S'821.3'
p350
sg12
S'water'
p351
sg14
S'839.5'
p352
sg16
S'843.0'
p353
sg18
S'843.0'
p354
sg20
S'847.2'
p355
sa(dp356
g3
S'830.6'
p357
sg5
I0
sg6
S'914.6'
p358
sg8
S'882.2'
p359
sg10
S'835.6'
p360
sg12
S'water'
p361
sg14
S'853.8'
p362
sg16
S'857.3'
p363
sg18
S'857.3'
p364
sg20
S'861.5'
p365
sa(dp366
g3
S'836.9'
p367
sg5
I0
sg6
S'926.9'
p368
sg8
S'888.5'
p369
sg10
S'841.9'
p370
sg12
S'water'
p371
sg14
S'860.1'
p372
sg16
S'863.6'
p373
sg18
S'863.6'
p374
sg20
S'867.8'
p375
sa(dp376
g3
S'844.3'
p377
sg5
I0
sg6
S'938.3'
p378
sg8
S'907.5'
p379
sg10
S'849.3'
p380
sg12
S'water'
p381
sg14
S'867.5'
p382
sg16
S'871.0'
p383
sg18
S'871.0'
p384
sg20
S'875.2'
p385
sa(dp386
g3
S'1015.9'
p387
sg5
I0
sg6
S'1084.9'
p388
sg8
S'1067.5'
p389
sg10
S'1020.9'
p390
sg12
S'water'
p391
sg14
S'1039.1'
p392
sg16
S'1042.6'
p393
sg18
S'1042.6'
p394
sg20
S'1046.8'
p395
sa(dp396
g3
S'1021.7'
p397
sg5
I0
sg6
S'1132.7'
p398
sg8
S'1073.3'
p399
sg10
S'1026.7'
p400
sg12
S'water'
p401
sg14
S'1044.9'
p402
sg16
S'1048.4'
p403
sg18
S'1048.4'
p404
sg20
S'1052.6'
p405
sa(dp406
g3
S'1070.7'
p407
sg5
I0
sg6
S'1181.7'
p408
sg8
S'1122.2'
p409
sg10
S'1075.7'
p410
sg12
S'water'
p411
sg14
S'1093.9'
p412
sg16
S'1097.4'
p413
sg18
S'1097.4'
p414
sg20
S'1101.6'
p415
saF95.239999999999995
F44.774999999999999
I4
t.