((lp1
(dp2
S'Arrival'
p3
S'0.8'
p4
sS'Late'
p5
I0
sS'Depart'
p6
S'108.8'
p7
sS'POWER'
p8
S'56.8'
p9
sS'Power_time'
p10
S'44.0'
p11
sS'Bag_time'
p12
S'16.0'
p13
sS'WATER'
p14
S'water'
p15
sS'BAGGAGE'
p16
S'28.8'
p17
sS'CATER'
p18
S'34.8'
p19
sS'LANDING'
p20
S'5.8'
p21
sS'CLEAN'
p22
S'30.8'
p23
sS'FUEL'
p24
S'36.8'
p25
sa(dp26
g3
S'21.5'
p27
sg5
I0
sg6
S'103.5'
p28
sg8
S'77.5'
p29
sg10
S'44.0'
p30
sg12
S'16.0'
p31
sg14
S'water'
p32
sg16
S'49.5'
p33
sg18
S'55.5'
p34
sg20
S'26.5'
p35
sg22
S'51.5'
p36
sg24
S'57.5'
p37
sa(dp38
g3
S'72.3'
p39
sg5
I0
sg6
S'174.3'
p40
sg8
S'138.3'
p41
sg10
S'54.0'
p42
sg12
S'28.0'
p43
sg14
S'water'
p44
sg16
S'112.3'
p45
sg18
S'121.3'
p46
sg20
S'77.3'
p47
sg22
S'120.3'
p48
sg24
S'119.3'
p49
sa(dp50
g3
S'101.7'
p51
sg5
I0
sg6
S'180.7'
p52
sg8
S'157.7'
p53
sg10
S'44.0'
p54
sg12
S'16.0'
p55
sg14
S'water'
p56
sg16
S'129.7'
p57
sg18
S'135.7'
p58
sg20
S'106.7'
p59
sg22
S'131.7'
p60
sg24
S'137.7'
p61
sa(dp62
g3
S'197.4'
p63
sg5
I0
sg6
S'314.4'
p64
sg8
S'253.4'
p65
sg10
S'44.0'
p66
sg12
S'16.0'
p67
sg14
S'water'
p68
sg16
S'225.4'
p69
sg18
S'231.4'
p70
sg20
S'202.4'
p71
sg22
S'227.4'
p72
sg24
S'233.4'
p73
sa(dp74
g3
S'200.1'
p75
sg5
I0
sg6
S'305.1'
p76
sg8
S'256.1'
p77
sg10
S'44.0'
p78
sg12
S'16.0'
p79
sg14
S'water'
p80
sg16
S'228.1'
p81
sg18
S'234.1'
p82
sg20
S'205.1'
p83
sg22
S'230.1'
p84
sg24
S'236.1'
p85
sa(dp86
g3
S'251.4'
p87
sg5
I0
sg6
S'331.4'
p88
sg8
S'307.4'
p89
sg10
S'44.0'
p90
sg12
S'16.0'
p91
sg14
S'water'
p92
sg16
S'279.4'
p93
sg18
S'285.4'
p94
sg20
S'256.4'
p95
sg22
S'281.4'
p96
sg24
S'287.4'
p97
sa(dp98
g3
S'265.0'
p99
sg5
I0
sg6
S'367.0'
p100
sg8
S'331.0'
p101
sg10
S'54.0'
p102
sg12
S'28.0'
p103
sg14
S'water'
p104
sg16
S'305.0'
p105
sg18
S'314.0'
p106
sg20
S'270.0'
p107
sg22
S'313.0'
p108
sg24
S'312.0'
p109
sa(dp110
g3
S'299.4'
p111
sg5
I0
sg6
S'377.4'
p112
sg8
S'355.4'
p113
sg10
S'44.0'
p114
sg12
S'16.0'
p115
sg14
S'water'
p116
sg16
S'327.4'
p117
sg18
S'333.4'
p118
sg20
S'304.4'
p119
sg22
S'329.4'
p120
sg24
S'335.4'
p121
sa(dp122
g3
S'323.3'
p123
sg5
I0
sg6
S'412.3'
p124
sg8
S'389.3'
p125
sg10
S'54.0'
p126
sg12
S'28.0'
p127
sg14
S'water'
p128
sg16
S'363.3'
p129
sg18
S'372.3'
p130
sg20
S'328.3'
p131
sg22
S'371.3'
p132
sg24
S'370.3'
p133
sa(dp134
g3
S'370.2'
p135
sg5
I0
sg6
S'453.2'
p136
sg8
S'426.2'
p137
sg10
S'44.0'
p138
sg12
S'16.0'
p139
sg14
S'water'
p140
sg16
S'398.2'
p141
sg18
S'404.2'
p142
sg20
S'375.2'
p143
sg22
S'400.2'
p144
sg24
S'406.2'
p145
sa(dp146
g3
S'370.3'
p147
sg5
I0
sg6
S'463.3'
p148
sg8
S'433.3'
p149
sg10
S'44.0'
p150
sg12
S'16.0'
p151
sg14
S'water'
p152
sg16
S'398.3'
p153
sg18
S'404.3'
p154
sg20
S'375.3'
p155
sg22
S'400.3'
p156
sg24
S'406.3'
p157
sa(dp158
g3
S'501.8'
p159
sg5
I0
sg6
S'599.8'
p160
sg8
S'557.8'
p161
sg10
S'44.0'
p162
sg12
S'16.0'
p163
sg14
S'water'
p164
sg16
S'529.8'
p165
sg18
S'535.8'
p166
sg20
S'506.8'
p167
sg22
S'531.8'
p168
sg24
S'537.8'
p169
sa(dp170
g3
S'511.4'
p171
sg5
I0
sg6
S'624.4'
p172
sg8
S'577.4'
p173
sg10
S'54.0'
p174
sg12
S'28.0'
p175
sg14
S'water'
p176
sg16
S'551.4'
p177
sg18
S'560.4'
p178
sg20
S'516.4'
p179
sg22
S'559.4'
p180
sg24
S'558.4'
p181
sa(dp182
g3
S'585.7'
p183
sg5
I0
sg6
S'661.7'
p184
sg8
S'641.7'
p185
sg10
S'44.0'
p186
sg12
S'16.0'
p187
sg14
S'water'
p188
sg16
S'613.7'
p189
sg18
S'619.7'
p190
sg20
S'590.7'
p191
sg22
S'615.7'
p192
sg24
S'621.7'
p193
sa(dp194
g3
S'654.0'
p195
sg5
I0
sg6
S'748.0'
p196
sg8
S'705.6'
p197
sg10
S'39.6'
p198
sg12
S'11.2'
p199
sg14
S'water'
p200
sg16
S'677.2'
p201
sg18
S'683.5'
p202
sg20
S'659.0'
p203
sg22
S'680.7'
p204
sg24
S'684.9'
p205
sa(dp206
g3
S'657.3'
p207
sg5
I0
sg6
S'728.3'
p208
sg8
S'713.3'
p209
sg10
S'44.0'
p210
sg12
S'16.0'
p211
sg14
S'water'
p212
sg16
S'685.3'
p213
sg18
S'691.3'
p214
sg20
S'662.3'
p215
sg22
S'687.3'
p216
sg24
S'693.3'
p217
sa(dp218
g3
S'659.3'
p219
sg5
S'19.3'
p220
sg6
S'759.6'
p221
sg8
S'759.6'
p222
sg10
S'54.0'
p223
sg12
S'28.0'
p224
sg14
S'water'
p225
sg16
S'705.2'
p226
sg18
S'720.5'
p227
sg20
S'664.3'
p228
sg22
S'716.7'
p229
sg24
S'719.9'
p230
sa(dp231
g3
S'691.2'
p232
sg5
I0
sg6
S'810.2'
p233
sg8
S'757.3'
p234
sg10
S'44.0'
p235
sg12
S'16.0'
p236
sg14
S'water'
p237
sg16
S'719.2'
p238
sg18
S'725.2'
p239
sg20
S'696.2'
p240
sg22
S'721.2'
p241
sg24
S'727.2'
p242
sa(dp243
g3
S'699.8'
p244
sg5
S'81.8'
p245
sg6
S'901.6'
p246
sg8
S'901.6'
p247
sg10
S'44.0'
p248
sg12
S'16.0'
p249
sg14
S'water'
p250
sg16
S'727.8'
p251
sg18
S'747.2'
p252
sg20
S'704.8'
p253
sg22
S'734.7'
p254
sg24
S'810.2'
p255
sa(dp256
g3
S'705.9'
p257
sg5
S'25.4'
p258
sg6
S'801.3'
p259
sg8
S'801.3'
p260
sg10
S'44.0'
p261
sg12
S'16.0'
p262
sg14
S'water'
p263
sg16
S'735.2'
p264
sg18
S'742.5'
p265
sg20
S'710.9'
p266
sg22
S'739.2'
p267
sg24
S'743.9'
p268
sa(dp269
g3
S'714.8'
p270
sg5
S'30.8'
p271
sg6
S'813.6'
p272
sg8
S'813.6'
p273
sg10
S'54.0'
p274
sg12
S'28.0'
p275
sg14
S'water'
p276
sg16
S'755.8'
p277
sg18
S'779.5'
p278
sg20
S'719.8'
p279
sg22
S'770.7'
p280
sg24
S'762.2'
p281
sa(dp282
g3
S'717.6'
p283
sg5
S'49.3'
p284
sg6
S'840.9'
p285
sg8
S'840.9'
p286
sg10
S'39.6'
p287
sg12
S'11.2'
p288
sg14
S'water'
p289
sg16
S'746.4'
p290
sg18
S'764.7'
p291
sg20
S'722.6'
p292
sg22
S'753.9'
p293
sg24
S'762.8'
p294
sa(dp295
g3
S'724.1'
p296
sg5
S'54.4'
p297
sg6
S'857.6'
p298
sg8
S'857.6'
p299
sg10
S'44.0'
p300
sg12
S'16.0'
p301
sg14
S'water'
p302
sg16
S'762.4'
p303
sg18
S'786.7'
p304
sg20
S'729.1'
p305
sg22
S'771.9'
p306
sg24
S'786.2'
p307
sa(dp308
g3
S'733.4'
p309
sg5
S'106.5'
p310
sg6
S'938.9'
p311
sg8
S'938.9'
p312
sg10
S'54.0'
p313
sg12
S'28.0'
p314
sg14
S'water'
p315
sg16
S'790.4'
p316
sg18
S'823.7'
p317
sg20
S'738.4'
p318
sg22
S'807.9'
p319
sg24
S'821.8'
p320
sa(dp321
g3
S'740.7'
p322
sg5
S'70.2'
p323
sg6
S'884.9'
p324
sg8
S'884.9'
p325
sg10
S'44.0'
p326
sg12
S'16.0'
p327
sg14
S'water'
p328
sg16
S'771.8'
p329
sg18
S'801.5'
p330
sg20
S'745.7'
p331
sg22
S'788.7'
p332
sg24
S'786.8'
p333
sa(dp334
g3
S'765.3'
p335
sg5
S'69.3'
p336
sg6
S'945.6'
p337
sg8
S'945.6'
p338
sg10
S'44.0'
p339
sg12
S'16.0'
p340
sg14
S'water'
p341
sg16
S'793.3'
p342
sg18
S'823.5'
p343
sg20
S'770.3'
p344
sg22
S'806.7'
p345
sg24
S'834.2'
p346
sa(dp347
g3
S'767.2'
p348
sg5
S'101.7'
p349
sg6
S'982.9'
p350
sg8
S'982.9'
p351
sg10
S'44.0'
p352
sg12
S'16.0'
p353
sg14
S'water'
p354
sg16
S'806.4'
p355
sg18
S'845.5'
p356
sg20
S'772.2'
p357
sg22
S'824.7'
p358
sg24
S'845.8'
p359
sa(dp360
g3
S'805.7'
p361
sg5
S'141.2'
p362
sg6
S'1070.9'
p363
sg8
S'1070.9'
p364
sg10
S'44.0'
p365
sg12
S'16.0'
p366
sg14
S'water'
p367
sg16
S'833.7'
p368
sg18
S'889.5'
p369
sg20
S'810.7'
p370
sg22
S'835.7'
p371
sg24
S'893.8'
p372
sa(dp373
g3
S'810.0'
p374
sg5
S'100.6'
p375
sg6
S'989.6'
p376
sg8
S'989.6'
p377
sg10
S'44.0'
p378
sg12
S'16.0'
p379
sg14
S'water'
p380
sg16
S'838.0'
p381
sg18
S'845.7'
p382
sg20
S'815.0'
p383
sg22
S'842.7'
p384
sg24
S'858.2'
p385
sa(dp386
g3
S'816.0'
p387
sg5
S'114.5'
p388
sg6
S'1043.6'
p389
sg8
S'1043.6'
p390
sg10
S'54.0'
p391
sg12
S'28.0'
p392
sg14
S'water'
p393
sg16
S'861.7'
p394
sg18
S'882.7'
p395
sg20
S'821.0'
p396
sg22
S'871.7'
p397
sg24
S'893.2'
p398
sa(dp399
g3
S'827.6'
p400
sg5
S'108.3'
p401
sg6
S'1026.9'
p402
sg8
S'1026.9'
p403
sg10
S'44.0'
p404
sg12
S'16.0'
p405
sg14
S'water'
p406
sg16
S'855.6'
p407
sg18
S'867.5'
p408
sg20
S'832.6'
p409
sg22
S'860.7'
p410
sg24
S'869.8'
p411
sa(dp412
g3
S'883.4'
p413
sg5
S'124.5'
p414
sg6
S'1124.9'
p415
sg8
S'1124.9'
p416
sg10
S'54.0'
p417
sg12
S'28.0'
p418
sg14
S'water'
p419
sg16
S'923.4'
p420
sg18
S'932.4'
p421
sg20
S'888.4'
p422
sg22
S'931.4'
p423
sg24
S'930.4'
p424
sa(dp425
g3
S'899.6'
p426
sg5
S'88.9'
p427
sg6
S'1087.6'
p428
sg8
S'1087.6'
p429
sg10
S'44.0'
p430
sg12
S'16.0'
p431
sg14
S'water'
p432
sg16
S'927.6'
p433
sg18
S'933.6'
p434
sg20
S'904.6'
p435
sg22
S'929.6'
p436
sg24
S'935.6'
p437
sa(dp438
g3
S'908.2'
p439
sg5
S'129.3'
p440
sg6
S'1131.6'
p441
sg8
S'1131.6'
p442
sg10
S'44.0'
p443
sg12
S'16.0'
p444
sg14
S'water'
p445
sg16
S'939.4'
p446
sg18
S'954.4'
p447
sg20
S'913.2'
p448
sg22
S'947.6'
p449
sg24
S'954.4'
p450
sa(dp451
g3
S'930.1'
p452
sg5
S'165.8'
p453
sg6
S'1168.9'
p454
sg8
S'1168.9'
p455
sg10
S'44.0'
p456
sg12
S'16.0'
p457
sg14
S'water'
p458
sg16
S'958.1'
p459
sg18
S'964.1'
p460
sg20
S'935.1'
p461
sg22
S'960.1'
p462
sg24
S'966.1'
p463
sa(dp464
g3
S'955.4'
p465
sg5
S'105.1'
p466
sg6
S'1175.6'
p467
sg8
S'1175.6'
p468
sg10
S'44.0'
p469
sg12
S'16.0'
p470
sg14
S'water'
p471
sg16
S'983.4'
p472
sg18
S'989.4'
p473
sg20
S'960.4'
p474
sg22
S'985.4'
p475
sg24
S'991.4'
p476
sa(dp477
g3
S'986.0'
p478
sg5
S'134.9'
p479
sg6
S'1212.9'
p480
sg8
S'1212.9'
p481
sg10
S'44.0'
p482
sg12
S'16.0'
p483
sg14
S'water'
p484
sg16
S'1014.0'
p485
sg18
S'1020.0'
p486
sg20
S'991.0'
p487
sg22
S'1016.0'
p488
sg24
S'1022.0'
p489
sa(dp490
g3
S'1045.1'
p491
sg5
S'81.5'
p492
sg6
S'1219.6'
p493
sg8
S'1219.6'
p494
sg10
S'44.0'
p495
sg12
S'16.0'
p496
sg14
S'water'
p497
sg16
S'1073.1'
p498
sg18
S'1079.1'
p499
sg20
S'1050.1'
p500
sg22
S'1075.1'
p501
sg24
S'1081.1'
p502
sa(dp503
g3
S'1056.2'
p504
sg5
S'85.7'
p505
sg6
S'1256.9'
p506
sg8
S'1256.9'
p507
sg10
S'44.0'
p508
sg12
S'16.0'
p509
sg14
S'water'
p510
sg16
S'1084.2'
p511
sg18
S'1090.2'
p512
sg20
S'1061.2'
p513
sg22
S'1086.2'
p514
sg24
S'1092.2'
p515
saF144.33749999999998
F90.409090909090921
I22
t.