((lp1
(dp2
S'Arrival'
p3
S'2.8'
p4
sS'Late'
p5
I0
sS'Depart'
p6
S'75.8'
p7
sS'POWER'
p8
S'58.8'
p9
sS'Bag_time'
p10
S'16.0'
p11
sS'WATER'
p12
S'water'
p13
sS'BAGGAGE'
p14
S'30.8'
p15
sS'CATER'
p16
S'36.8'
p17
sS'LANDING'
p18
S'7.8'
p19
sS'CLEAN'
p20
S'32.8'
p21
sS'FUEL'
p22
S'38.8'
p23
sa(dp24
g3
S'7.8'
p25
sg5
I0
sg6
S'112.8'
p26
sg8
S'112.8'
p27
sg10
S'38.9'
p28
sg12
S'water'
p29
sg14
S'58.8'
p30
sg16
S'73.8'
p31
sg18
S'12.8'
p32
sg20
S'68.8'
p33
sg22
S'73.8'
p34
sa(dp35
g3
S'16.9'
p36
sg5
S'59.9'
p37
sg6
S'200.8'
p38
sg8
S'200.8'
p39
sg10
S'61.9'
p40
sg12
S'water'
p41
sg14
S'90.8'
p42
sg16
S'117.8'
p43
sg18
S'21.9'
p44
sg20
S'104.8'
p45
sg22
S'121.8'
p46
sa(dp47
g3
S'19.3'
p48
sg5
S'22.5'
p49
sg6
S'156.8'
p50
sg8
S'156.8'
p51
sg10
S'43.5'
p52
sg12
S'water'
p53
sg14
S'74.8'
p54
sg16
S'95.8'
p55
sg18
S'24.3'
p56
sg20
S'86.8'
p57
sg22
S'97.8'
p58
sa(dp59
g3
S'47.0'
p60
sg5
S'81.4'
p61
sg6
S'240.4'
p62
sg8
S'240.4'
p63
sg10
S'43.0'
p64
sg12
S'water'
p65
sg14
S'102.0'
p66
sg16
S'135.3'
p67
sg18
S'52.0'
p68
sg20
S'119.5'
p69
sg22
S'140.7'
p70
sa(dp71
g3
S'121.0'
p72
sg5
S'91.4'
p73
sg6
S'284.4'
p74
sg8
S'284.4'
p75
sg10
S'16.0'
p76
sg12
S'water'
p77
sg14
S'149.0'
p78
sg16
S'157.3'
p79
sg18
S'126.0'
p80
sg20
S'151.0'
p81
sg22
S'164.7'
p82
sa(dp83
g3
S'146.8'
p84
sg5
S'138.6'
p85
sg6
S'382.4'
p86
sg8
S'382.4'
p87
sg10
S'16.0'
p88
sg12
S'water'
p89
sg14
S'174.8'
p90
sg16
S'180.8'
p91
sg18
S'151.8'
p92
sg20
S'176.8'
p93
sg22
S'188.7'
p94
sa(dp95
g3
S'155.2'
p96
sg5
S'176.2'
p97
sg6
S'426.4'
p98
sg8
S'426.4'
p99
sg10
S'51.6'
p100
sg12
S'water'
p101
sg14
S'218.8'
p102
sg16
S'239.8'
p103
sg18
S'160.2'
p104
sg20
S'230.8'
p105
sg22
S'247.7'
p106
sa(dp107
g3
S'162.6'
p108
sg5
S'99.8'
p109
sg6
S'338.4'
p110
sg8
S'338.4'
p111
sg10
S'28.2'
p112
sg12
S'water'
p113
sg14
S'202.8'
p114
sg16
S'217.8'
p115
sg18
S'167.6'
p116
sg20
S'212.8'
p117
sg22
S'223.7'
p118
sa(dp119
g3
S'163.1'
p120
sg5
S'216.2'
p121
sg6
S'470.4'
p122
sg8
S'470.4'
p123
sg10
S'59.7'
p124
sg12
S'water'
p125
sg14
S'234.8'
p126
sg16
S'261.8'
p127
sg18
S'168.1'
p128
sg20
S'248.8'
p129
sg22
S'271.7'
p130
sa(dp131
g3
S'215.4'
p132
sg5
S'233.9'
p133
sg6
S'558.4'
p134
sg8
S'558.4'
p135
sg10
S'39.4'
p136
sg12
S'water'
p137
sg14
S'266.8'
p138
sg16
S'305.8'
p139
sg18
S'220.4'
p140
sg20
S'284.8'
p141
sg22
S'319.7'
p142
sa(dp143
g3
S'215.9'
p144
sg5
S'262.5'
p145
sg6
S'602.4'
p146
sg8
S'602.4'
p147
sg10
S'54.9'
p148
sg12
S'water'
p149
sg14
S'282.8'
p150
sg16
S'327.8'
p151
sg18
S'220.9'
p152
sg20
S'302.8'
p153
sg22
S'343.7'
p154
sa(dp155
g3
S'218.5'
p156
sg5
S'198.9'
p157
sg6
S'514.4'
p158
sg8
S'514.4'
p159
sg10
S'20.3'
p160
sg12
S'water'
p161
sg14
S'250.8'
p162
sg16
S'283.8'
p163
sg18
S'223.5'
p164
sg20
S'266.8'
p165
sg22
S'295.7'
p166
sa(dp167
g3
S'259.1'
p168
sg5
S'272.3'
p169
sg6
S'646.4'
p170
sg8
S'646.4'
p171
sg10
S'27.8'
p172
sg12
S'water'
p173
sg14
S'298.8'
p174
sg16
S'349.8'
p175
sg18
S'264.1'
p176
sg20
S'320.8'
p177
sg22
S'367.7'
p178
sa(dp179
g3
S'284.8'
p180
sg5
S'282.6'
p181
sg6
S'690.4'
p182
sg8
S'690.4'
p183
sg10
S'18.0'
p184
sg12
S'water'
p185
sg14
S'314.8'
p186
sg16
S'371.8'
p187
sg18
S'289.8'
p188
sg20
S'338.8'
p189
sg22
S'391.7'
p190
sa(dp191
g3
S'329.2'
p192
sg5
S'288.2'
p193
sg6
S'734.4'
p194
sg8
S'734.4'
p195
sg10
S'16.0'
p196
sg12
S'water'
p197
sg14
S'357.2'
p198
sg16
S'393.8'
p199
sg18
S'334.2'
p200
sg20
S'359.2'
p201
sg22
S'415.7'
p202
sa(dp203
g3
S'362.3'
p204
sg5
S'328.1'
p205
sg6
S'778.4'
p206
sg8
S'778.4'
p207
sg10
S'16.0'
p208
sg12
S'water'
p209
sg14
S'390.3'
p210
sg16
S'415.8'
p211
sg18
S'367.3'
p212
sg20
S'392.3'
p213
sg22
S'439.7'
p214
sa(dp215
g3
S'393.7'
p216
sg5
S'348.7'
p217
sg6
S'822.4'
p218
sg8
S'822.4'
p219
sg10
S'16.0'
p220
sg12
S'water'
p221
sg14
S'421.7'
p222
sg16
S'437.8'
p223
sg18
S'398.7'
p224
sg20
S'423.7'
p225
sg22
S'463.7'
p226
sa(dp227
g3
S'439.5'
p228
sg5
S'329.9'
p229
sg6
S'866.4'
p230
sg8
S'866.4'
p231
sg10
S'16.0'
p232
sg12
S'water'
p233
sg14
S'467.5'
p234
sg16
S'473.5'
p235
sg18
S'444.5'
p236
sg20
S'469.5'
p237
sg22
S'487.7'
p238
sa(dp239
g3
S'452.8'
p240
sg5
S'352.6'
p241
sg6
S'910.4'
p242
sg8
S'910.4'
p243
sg10
S'18.7'
p244
sg12
S'water'
p245
sg14
S'483.5'
p246
sg16
S'495.5'
p247
sg18
S'457.8'
p248
sg20
S'487.5'
p249
sg22
S'511.7'
p250
sa(dp251
g3
S'512.6'
p252
sg5
S'376.8'
p253
sg6
S'998.4'
p254
sg8
S'998.4'
p255
sg10
S'16.0'
p256
sg12
S'water'
p257
sg14
S'540.6'
p258
sg16
S'546.6'
p259
sg18
S'517.6'
p260
sg20
S'542.6'
p261
sg22
S'548.6'
p262
sa(dp263
g3
S'522.7'
p264
sg5
S'337.7'
p265
sg6
S'954.4'
p266
sg8
S'954.4'
p267
sg10
S'22.0'
p268
sg12
S'water'
p269
sg14
S'556.6'
p270
sg16
S'568.6'
p271
sg18
S'527.7'
p272
sg20
S'560.6'
p273
sg22
S'572.6'
p274
sa(dp275
g3
S'542.7'
p276
sg5
S'380.0'
p277
sg6
S'1052.4'
p278
sg8
S'1052.4'
p279
sg10
S'28.0'
p280
sg12
S'water'
p281
sg14
S'600.4'
p282
sg16
S'609.4'
p283
sg18
S'565.4'
p284
sg20
S'608.4'
p285
sg22
S'607.6'
p286
sa(dp287
g3
S'547.5'
p288
sg5
S'396.0'
p289
sg6
S'1096.4'
p290
sg8
S'1096.4'
p291
sg10
S'16.0'
p292
sg12
S'water'
p293
sg14
S'632.4'
p294
sg16
S'638.4'
p295
sg18
S'609.4'
p296
sg20
S'634.4'
p297
sg22
S'640.4'
p298
sa(dp299
g3
S'549.4'
p300
sg5
S'393.0'
p301
sg6
S'1150.4'
p302
sg8
S'1150.4'
p303
sg10
S'28.0'
p304
sg12
S'water'
p305
sg14
S'688.4'
p306
sg16
S'697.4'
p307
sg18
S'653.4'
p308
sg20
S'696.4'
p309
sg22
S'695.4'
p310
sa(dp311
g3
S'608.0'
p312
sg5
S'423.6'
p313
sg6
S'1234.0'
p314
sg8
S'1234.0'
p315
sg10
S'11.2'
p316
sg12
S'water'
p317
sg14
S'715.6'
p318
sg16
S'721.9'
p319
sg18
S'697.4'
p320
sg20
S'719.1'
p321
sg22
S'723.3'
p322
sa(dp323
g3
S'613.7'
p324
sg5
S'391.0'
p325
sg6
S'1194.4'
p326
sg8
S'1194.4'
p327
sg10
S'16.0'
p328
sg12
S'water'
p329
sg14
S'764.4'
p330
sg16
S'770.4'
p331
sg18
S'741.4'
p332
sg20
S'766.4'
p333
sg22
S'772.4'
p334
sa(dp335
g3
S'620.6'
p336
sg5
S'407.6'
p337
sg6
S'1278.0'
p338
sg8
S'1278.0'
p339
sg10
S'16.0'
p340
sg12
S'water'
p341
sg14
S'808.4'
p342
sg16
S'814.4'
p343
sg18
S'785.4'
p344
sg20
S'810.4'
p345
sg22
S'816.4'
p346
sa(dp347
g3
S'671.0'
p348
sg5
S'404.6'
p349
sg6
S'1322.0'
p350
sg8
S'1322.0'
p351
sg10
S'16.0'
p352
sg12
S'water'
p353
sg14
S'852.4'
p354
sg16
S'858.4'
p355
sg18
S'829.4'
p356
sg20
S'854.4'
p357
sg22
S'860.4'
p358
sa(dp359
g3
S'682.7'
p360
sg5
S'386.6'
p361
sg6
S'1366.0'
p362
sg8
S'1366.0'
p363
sg10
S'16.0'
p364
sg12
S'water'
p365
sg14
S'896.4'
p366
sg16
S'902.4'
p367
sg18
S'873.4'
p368
sg20
S'898.4'
p369
sg22
S'904.4'
p370
sa(dp371
g3
S'686.1'
p372
sg5
S'420.6'
p373
sg6
S'1410.0'
p374
sg8
S'1410.0'
p375
sg10
S'16.0'
p376
sg12
S'water'
p377
sg14
S'940.4'
p378
sg16
S'946.4'
p379
sg18
S'917.4'
p380
sg20
S'942.4'
p381
sg22
S'948.4'
p382
sa(dp383
g3
S'758.5'
p384
sg5
S'397.6'
p385
sg6
S'1454.0'
p386
sg8
S'1454.0'
p387
sg10
S'16.0'
p388
sg12
S'water'
p389
sg14
S'984.4'
p390
sg16
S'990.4'
p391
sg18
S'961.4'
p392
sg20
S'986.4'
p393
sg22
S'992.4'
p394
sa(dp395
g3
S'812.5'
p396
sg5
S'382.6'
p397
sg6
S'1498.0'
p398
sg8
S'1498.0'
p399
sg10
S'16.0'
p400
sg12
S'water'
p401
sg14
S'1028.4'
p402
sg16
S'1034.4'
p403
sg18
S'1005.4'
p404
sg20
S'1030.4'
p405
sg22
S'1036.4'
p406
sa(dp407
g3
S'860.6'
p408
sg5
S'369.6'
p409
sg6
S'1542.0'
p410
sg8
S'1542.0'
p411
sg10
S'16.0'
p412
sg12
S'water'
p413
sg14
S'1082.4'
p414
sg16
S'1088.4'
p415
sg18
S'1059.4'
p416
sg20
S'1084.4'
p417
sg22
S'1090.4'
p418
sa(dp419
g3
S'874.6'
p420
sg5
S'381.6'
p421
sg6
S'1586.0'
p422
sg8
S'1586.0'
p423
sg10
S'16.0'
p424
sg12
S'water'
p425
sg14
S'1126.4'
p426
sg16
S'1132.4'
p427
sg18
S'1103.4'
p428
sg20
S'1128.4'
p429
sg22
S'1134.4'
p430
sa(dp431
g3
S'874.6'
p432
sg5
S'366.6'
p433
sg6
S'1630.0'
p434
sg8
S'1630.0'
p435
sg10
S'16.0'
p436
sg12
S'water'
p437
sg14
S'1180.4'
p438
sg16
S'1186.4'
p439
sg18
S'1157.4'
p440
sg20
S'1182.4'
p441
sg22
S'1188.4'
p442
sa(dp443
g3
S'876.6'
p444
sg5
S'371.6'
p445
sg6
S'1674.0'
p446
sg8
S'1674.0'
p447
sg10
S'16.0'
p448
sg12
S'water'
p449
sg14
S'1224.4'
p450
sg16
S'1230.4'
p451
sg18
S'1201.4'
p452
sg20
S'1226.4'
p453
sg22
S'1232.4'
p454
sa(dp455
g3
S'907.5'
p456
sg5
S'398.0'
p457
sg6
S'1718.0'
p458
sg8
S'1718.0'
p459
sg10
S'16.0'
p460
sg12
S'water'
p461
sg14
S'1264.0'
p462
sg16
S'1270.0'
p463
sg18
S'1241.0'
p464
sg20
S'1266.0'
p465
sg22
S'1272.0'
p466
sa(dp467
g3
S'989.5'
p468
sg5
S'405.0'
p469
sg6
S'1762.0'
p470
sg8
S'1762.0'
p471
sg10
S'16.0'
p472
sg12
S'water'
p473
sg14
S'1308.0'
p474
sg16
S'1314.0'
p475
sg18
S'1285.0'
p476
sg20
S'1310.0'
p477
sg22
S'1316.0'
p478
sa(dp479
g3
S'1008.9'
p480
sg5
S'391.0'
p481
sg6
S'1806.0'
p482
sg8
S'1806.0'
p483
sg10
S'16.0'
p484
sg12
S'water'
p485
sg14
S'1352.0'
p486
sg16
S'1358.0'
p487
sg18
S'1329.0'
p488
sg20
S'1354.0'
p489
sg22
S'1360.0'
p490
saF475.12499999999989
F304.33684210526326
I38
t.