((lp1
(dp2
S'Arrival'
p3
S'45.4'
p4
sS'Late'
p5
S'28.0'
p6
sS'Depart'
p7
S'167.4'
p8
sS'POWER'
p9
S'167.4'
p10
sS'LANDING'
p11
S'50.4'
p12
sS'WATER'
p13
S'water'
p14
sS'BAGGAGE'
p15
S'97.4'
p16
sS'CATER'
p17
S'79.4'
p18
sS'CLEAN'
p19
S'93.4'
p20
sS'FUEL'
p21
S'92.4'
p22
sa(dp23
g3
S'63.7'
p24
sg5
I0
sg7
S'123.7'
p25
sg9
S'115.3'
p26
sg11
S'68.7'
p27
sg13
S'water'
p28
sg15
S'86.9'
p29
sg17
S'90.4'
p30
sg19
S'90.4'
p31
sg21
S'94.6'
p32
sa(dp33
g3
S'64.1'
p34
sg5
I0
sg7
S'180.1'
p35
sg9
S'115.7'
p36
sg11
S'69.1'
p37
sg13
S'water'
p38
sg15
S'87.3'
p39
sg17
S'90.8'
p40
sg19
S'90.8'
p41
sg21
S'95.0'
p42
sa(dp43
g3
S'98.4'
p44
sg5
I0
sg7
S'193.4'
p45
sg9
S'154.9'
p46
sg11
S'103.4'
p47
sg13
S'water'
p48
sg15
S'121.6'
p49
sg17
S'125.1'
p50
sg19
S'125.1'
p51
sg21
S'129.3'
p52
sa(dp53
g3
S'106.0'
p54
sg5
I0
sg7
S'217.0'
p55
sg9
S'184.0'
p56
sg11
S'111.0'
p57
sg13
S'water'
p58
sg15
S'142.0'
p59
sg17
S'136.0'
p60
sg19
S'136.0'
p61
sg21
S'142.0'
p62
sa(dp63
g3
S'198.7'
p64
sg5
I0
sg7
S'274.7'
p65
sg9
S'250.3'
p66
sg11
S'203.7'
p67
sg13
S'water'
p68
sg15
S'221.9'
p69
sg17
S'225.4'
p70
sg19
S'225.4'
p71
sg21
S'229.6'
p72
sa(dp73
g3
S'219.9'
p74
sg5
I0
sg7
S'284.9'
p75
sg9
S'271.5'
p76
sg11
S'224.9'
p77
sg13
S'water'
p78
sg15
S'243.1'
p79
sg17
S'246.6'
p80
sg19
S'246.6'
p81
sg21
S'250.8'
p82
sa(dp83
g3
S'226.7'
p84
sg5
I0
sg7
S'291.7'
p85
sg9
S'278.3'
p86
sg11
S'231.7'
p87
sg13
S'water'
p88
sg15
S'249.9'
p89
sg17
S'253.4'
p90
sg19
S'253.4'
p91
sg21
S'257.6'
p92
sa(dp93
g3
S'227.2'
p94
sg5
I0
sg7
S'318.1'
p95
sg9
S'289.9'
p96
sg11
S'232.2'
p97
sg13
S'water'
p98
sg15
S'250.3'
p99
sg17
S'253.8'
p100
sg19
S'253.8'
p101
sg21
S'258.1'
p102
sa(dp103
g3
S'253.6'
p104
sg5
I0
sg7
S'347.6'
p105
sg9
S'311.1'
p106
sg11
S'258.6'
p107
sg13
S'water'
p108
sg15
S'276.8'
p109
sg17
S'280.3'
p110
sg19
S'280.3'
p111
sg21
S'284.5'
p112
sa(dp113
g3
S'261.4'
p114
sg5
I0
sg7
S'373.4'
p115
sg9
S'317.9'
p116
sg11
S'266.4'
p117
sg13
S'water'
p118
sg15
S'284.6'
p119
sg17
S'288.1'
p120
sg19
S'288.1'
p121
sg21
S'292.3'
p122
sa(dp123
g3
S'275.5'
p124
sg5
I0
sg7
S'356.5'
p125
sg9
S'329.5'
p126
sg11
S'280.5'
p127
sg13
S'water'
p128
sg15
S'298.7'
p129
sg17
S'302.2'
p130
sg19
S'302.2'
p131
sg21
S'306.4'
p132
sa(dp133
g3
S'277.7'
p134
sg5
I0
sg7
S'371.7'
p135
sg9
S'350.7'
p136
sg11
S'282.7'
p137
sg13
S'water'
p138
sg15
S'300.9'
p139
sg17
S'304.4'
p140
sg19
S'304.4'
p141
sg21
S'308.6'
p142
sa(dp143
g3
S'292.9'
p144
sg5
I0
sg7
S'379.9'
p145
sg9
S'357.5'
p146
sg11
S'297.9'
p147
sg13
S'water'
p148
sg15
S'316.1'
p149
sg17
S'319.6'
p150
sg19
S'319.6'
p151
sg21
S'323.8'
p152
sa(dp153
g3
S'314.9'
p154
sg5
I0
sg7
S'374.9'
p155
sg9
S'369.1'
p156
sg11
S'319.9'
p157
sg13
S'water'
p158
sg15
S'338.1'
p159
sg17
S'341.6'
p160
sg19
S'341.6'
p161
sg21
S'345.8'
p162
sa(dp163
g3
S'352.6'
p164
sg5
I0
sg7
S'439.6'
p165
sg9
S'404.2'
p166
sg11
S'357.6'
p167
sg13
S'water'
p168
sg15
S'375.8'
p169
sg17
S'379.3'
p170
sg19
S'379.3'
p171
sg21
S'383.5'
p172
sa(dp173
g3
S'428.4'
p174
sg5
I0
sg7
S'524.5'
p175
sg9
S'480.1'
p176
sg11
S'433.4'
p177
sg13
S'water'
p178
sg15
S'451.6'
p179
sg17
S'455.1'
p180
sg19
S'455.1'
p181
sg21
S'459.3'
p182
sa(dp183
g3
S'450.1'
p184
sg5
I0
sg7
S'511.1'
p185
sg9
S'501.7'
p186
sg11
S'455.1'
p187
sg13
S'water'
p188
sg15
S'473.3'
p189
sg17
S'476.8'
p190
sg19
S'476.8'
p191
sg21
S'481.0'
p192
sa(dp193
g3
S'467.8'
p194
sg5
I0
sg7
S'560.8'
p195
sg9
S'519.4'
p196
sg11
S'472.8'
p197
sg13
S'water'
p198
sg15
S'491.0'
p199
sg17
S'494.5'
p200
sg19
S'494.5'
p201
sg21
S'498.7'
p202
sa(dp203
g3
S'498.8'
p204
sg5
I0
sg7
S'567.8'
p205
sg9
S'550.4'
p206
sg11
S'503.8'
p207
sg13
S'water'
p208
sg15
S'522.0'
p209
sg17
S'525.5'
p210
sg19
S'525.5'
p211
sg21
S'529.7'
p212
sa(dp213
g3
S'501.0'
p214
sg5
I0
sg7
S'605.0'
p215
sg9
S'579.0'
p216
sg11
S'506.0'
p217
sg13
S'water'
p218
sg15
S'537.0'
p219
sg17
S'531.0'
p220
sg19
S'531.0'
p221
sg21
S'537.0'
p222
sa(dp223
g3
S'501.2'
p224
sg5
I0
sg7
S'620.2'
p225
sg9
S'559.0'
p226
sg11
S'506.2'
p227
sg13
S'water'
p228
sg15
S'524.4'
p229
sg17
S'527.9'
p230
sg19
S'527.9'
p231
sg21
S'532.1'
p232
sa(dp233
g3
S'510.1'
p234
sg5
I0
sg7
S'592.1'
p235
sg9
S'590.0'
p236
sg11
S'515.1'
p237
sg13
S'water'
p238
sg15
S'533.3'
p239
sg17
S'540.2'
p240
sg19
S'536.8'
p241
sg21
S'548.6'
p242
sa(dp243
g3
S'533.1'
p244
sg5
I0
sg7
S'632.1'
p245
sg9
S'598.6'
p246
sg11
S'538.1'
p247
sg13
S'water'
p248
sg15
S'556.3'
p249
sg17
S'559.8'
p250
sg19
S'559.8'
p251
sg21
S'564.0'
p252
sa(dp253
g3
S'645.4'
p254
sg5
I0
sg7
S'732.4'
p255
sg9
S'697.0'
p256
sg11
S'650.4'
p257
sg13
S'water'
p258
sg15
S'668.6'
p259
sg17
S'672.1'
p260
sg19
S'672.1'
p261
sg21
S'676.3'
p262
sa(dp263
g3
S'688.4'
p264
sg5
I0
sg7
S'791.4'
p265
sg9
S'740.0'
p266
sg11
S'693.4'
p267
sg13
S'water'
p268
sg15
S'711.6'
p269
sg17
S'715.1'
p270
sg19
S'715.1'
p271
sg21
S'719.3'
p272
sa(dp273
g3
S'697.5'
p274
sg5
I0
sg7
S'812.5'
p275
sg9
S'749.1'
p276
sg11
S'702.5'
p277
sg13
S'water'
p278
sg15
S'720.7'
p279
sg17
S'724.2'
p280
sg19
S'724.2'
p281
sg21
S'728.4'
p282
sa(dp283
g3
S'701.9'
p284
sg5
I0
sg7
S'803.9'
p285
sg9
S'753.5'
p286
sg11
S'706.9'
p287
sg13
S'water'
p288
sg15
S'725.1'
p289
sg17
S'728.6'
p290
sg19
S'728.6'
p291
sg21
S'732.8'
p292
sa(dp293
g3
S'737.7'
p294
sg5
I0
sg7
S'840.7'
p295
sg9
S'789.3'
p296
sg11
S'742.7'
p297
sg13
S'water'
p298
sg15
S'760.9'
p299
sg17
S'764.4'
p300
sg19
S'764.4'
p301
sg21
S'768.6'
p302
sa(dp303
g3
S'753.6'
p304
sg5
S'54.0'
p305
sg7
S'875.6'
p306
sg9
S'875.6'
p307
sg11
S'758.6'
p308
sg13
S'water'
p309
sg15
S'805.6'
p310
sg17
S'787.6'
p311
sg19
S'801.6'
p312
sg21
S'800.6'
p313
sa(dp314
g3
S'781.5'
p315
sg5
I0
sg7
S'861.5'
p316
sg9
S'833.1'
p317
sg11
S'786.5'
p318
sg13
S'water'
p319
sg15
S'804.7'
p320
sg17
S'808.2'
p321
sg19
S'808.2'
p322
sg21
S'812.4'
p323
sa(dp324
g3
S'814.6'
p325
sg5
I0
sg7
S'889.6'
p326
sg9
S'866.2'
p327
sg11
S'819.6'
p328
sg13
S'water'
p329
sg15
S'837.8'
p330
sg17
S'841.3'
p331
sg19
S'841.3'
p332
sg21
S'845.5'
p333
sa(dp334
g3
S'832.3'
p335
sg5
I0
sg7
S'930.3'
p336
sg9
S'883.9'
p337
sg11
S'837.3'
p338
sg13
S'water'
p339
sg15
S'855.5'
p340
sg17
S'859.0'
p341
sg19
S'859.0'
p342
sg21
S'863.2'
p343
sa(dp344
g3
S'861.7'
p345
sg5
I0
sg7
S'972.7'
p346
sg9
S'913.3'
p347
sg11
S'866.7'
p348
sg13
S'water'
p349
sg15
S'884.9'
p350
sg17
S'888.4'
p351
sg19
S'888.4'
p352
sg21
S'892.6'
p353
sa(dp354
g3
S'884.1'
p355
sg5
S'49.0'
p356
sg7
S'1006.1'
p357
sg9
S'1006.1'
p358
sg11
S'889.1'
p359
sg13
S'water'
p360
sg15
S'936.1'
p361
sg17
S'918.1'
p362
sg19
S'932.1'
p363
sg21
S'931.1'
p364
sa(dp365
g3
S'886.4'
p366
sg5
I0
sg7
S'960.4'
p367
sg9
S'938.0'
p368
sg11
S'891.4'
p369
sg13
S'water'
p370
sg15
S'909.6'
p371
sg17
S'913.1'
p372
sg19
S'913.1'
p373
sg21
S'917.3'
p374
sa(dp375
g3
S'977.3'
p376
sg5
I0
sg7
S'1042.3'
p377
sg9
S'1028.9'
p378
sg11
S'982.3'
p379
sg13
S'water'
p380
sg15
S'1000.5'
p381
sg17
S'1004.0'
p382
sg19
S'1004.0'
p383
sg21
S'1008.2'
p384
sa(dp385
g3
S'1000.7'
p386
sg5
I0
sg7
S'1084.7'
p387
sg9
S'1052.3'
p388
sg11
S'1005.7'
p389
sg13
S'water'
p390
sg15
S'1023.9'
p391
sg17
S'1027.4'
p392
sg19
S'1027.4'
p393
sg21
S'1031.6'
p394
sa(dp395
g3
S'1043.7'
p396
sg5
I0
sg7
S'1140.7'
p397
sg9
S'1095.3'
p398
sg11
S'1048.7'
p399
sg13
S'water'
p400
sg15
S'1066.9'
p401
sg17
S'1070.4'
p402
sg19
S'1070.4'
p403
sg21
S'1074.6'
p404
sa(dp405
g3
S'1061.9'
p406
sg5
I0
sg7
S'1163.9'
p407
sg9
S'1113.5'
p408
sg11
S'1066.9'
p409
sg13
S'water'
p410
sg15
S'1085.1'
p411
sg17
S'1088.6'
p412
sg19
S'1088.6'
p413
sg21
S'1092.8'
p414
saF91.974999999999994
F43.666666666666664
I3
t.