((lp1
(dp2
S'Arrival'
p3
S'4.5'
p4
sS'Late'
p5
I0
sS'Depart'
p6
S'76.5'
p7
sS'POWER'
p8
S'56.2'
p9
sS'LANDING'
p10
S'9.6'
p11
sS'WATER'
p12
S'water'
p13
sS'BAGGAGE'
p14
S'27.8'
p15
sS'CATER'
p16
S'31.2'
p17
sS'CLEAN'
p18
S'31.2'
p19
sS'FUEL'
p20
S'35.5'
p21
sa(dp22
g3
S'5.4'
p23
sg5
I0
sg6
S'117.4'
p24
sg8
S'57.0'
p25
sg10
S'10.4'
p26
sg12
S'water'
p27
sg14
S'28.6'
p28
sg16
S'32.1'
p29
sg18
S'32.1'
p30
sg20
S'36.3'
p31
sa(dp32
g3
S'10.1'
p33
sg5
S'0.5'
p34
sg6
S'96.6'
p35
sg8
S'96.6'
p36
sg10
S'15.1'
p37
sg12
S'water'
p38
sg14
S'39.8'
p39
sg16
S'46.8'
p40
sg18
S'39.1'
p41
sg20
S'55.2'
p42
sa(dp43
g3
S'11.0'
p44
sg5
S'12.8'
p45
sg6
S'95.8'
p46
sg8
S'95.8'
p47
sg10
S'16.0'
p48
sg12
S'water'
p49
sg14
S'39.0'
p50
sg16
S'46.0'
p51
sg18
S'38.2'
p52
sg20
S'54.4'
p53
sa(dp54
g3
S'55.2'
p55
sg5
I0
sg6
S'140.2'
p56
sg8
S'136.2'
p57
sg10
S'60.2'
p58
sg12
S'water'
p59
sg14
S'78.4'
p60
sg16
S'81.9'
p61
sg18
S'81.9'
p62
sg20
S'86.1'
p63
sa(dp64
g3
S'56.1'
p65
sg5
S'32.6'
p66
sg6
S'161.8'
p67
sg8
S'161.8'
p68
sg10
S'61.1'
p69
sg12
S'water'
p70
sg14
S'92.2'
p71
sg16
S'86.2'
p72
sg18
S'86.2'
p73
sg20
S'92.2'
p74
sa(dp75
g3
S'72.3'
p76
sg5
S'51.0'
p77
sg6
S'201.3'
p78
sg8
S'201.3'
p79
sg10
S'77.3'
p80
sg12
S'water'
p81
sg14
S'95.5'
p82
sg16
S'99.0'
p83
sg18
S'99.0'
p84
sg20
S'105.0'
p85
sa(dp86
g3
S'88.5'
p87
sg5
S'53.7'
p88
sg6
S'202.2'
p89
sg8
S'202.2'
p90
sg10
S'93.5'
p91
sg12
S'water'
p92
sg14
S'124.5'
p93
sg16
S'118.5'
p94
sg18
S'118.5'
p95
sg20
S'124.5'
p96
sa(dp97
g3
S'97.2'
p98
sg5
S'69.6'
p99
sg6
S'241.8'
p100
sg8
S'241.8'
p101
sg10
S'102.2'
p102
sg12
S'water'
p103
sg14
S'120.4'
p104
sg16
S'123.9'
p105
sg18
S'123.9'
p106
sg20
S'128.1'
p107
sa(dp108
g3
S'101.7'
p109
sg5
S'72.3'
p110
sg6
S'240.9'
p111
sg8
S'240.9'
p112
sg10
S'106.7'
p113
sg12
S'water'
p114
sg14
S'131.6'
p115
sg16
S'133.2'
p116
sg18
S'128.4'
p117
sg20
S'143.4'
p118
sa(dp119
g3
S'127.2'
p120
sg5
S'73.3'
p121
sg6
S'280.6'
p122
sg8
S'280.6'
p123
sg10
S'132.2'
p124
sg12
S'water'
p125
sg14
S'150.4'
p126
sg16
S'153.9'
p127
sg18
S'153.9'
p128
sg20
S'158.1'
p129
sa(dp130
g3
S'168.7'
p131
sg5
S'2.7'
p132
sg6
S'281.4'
p133
sg8
S'281.4'
p134
sg10
S'173.7'
p135
sg12
S'water'
p136
sg14
S'191.9'
p137
sg16
S'195.4'
p138
sg18
S'195.4'
p139
sg20
S'199.6'
p140
sa(dp141
g3
S'231.9'
p142
sg5
S'37.6'
p143
sg6
S'346.6'
p144
sg8
S'346.6'
p145
sg10
S'236.9'
p146
sg12
S'water'
p147
sg14
S'267.9'
p148
sg16
S'261.9'
p149
sg18
S'261.9'
p150
sg20
S'267.9'
p151
sa(dp152
g3
S'289.8'
p153
sg5
I0
sg6
S'355.8'
p154
sg8
S'341.4'
p155
sg10
S'294.8'
p156
sg12
S'water'
p157
sg14
S'313.0'
p158
sg16
S'316.5'
p159
sg18
S'316.5'
p160
sg20
S'320.7'
p161
sa(dp162
g3
S'293.5'
p163
sg5
I0
sg6
S'391.5'
p164
sg8
S'381.0'
p165
sg10
S'298.5'
p166
sg12
S'water'
p167
sg14
S'316.7'
p168
sg16
S'320.2'
p169
sg18
S'320.2'
p170
sg20
S'324.4'
p171
sa(dp172
g3
S'335.2'
p173
sg5
S'22.0'
p174
sg6
S'457.2'
p175
sg8
S'457.2'
p176
sg10
S'340.2'
p177
sg12
S'water'
p178
sg14
S'387.2'
p179
sg16
S'369.2'
p180
sg18
S'383.2'
p181
sg20
S'382.2'
p182
sa(dp183
g3
S'337.4'
p184
sg5
S'25.8'
p185
sg6
S'460.2'
p186
sg8
S'460.2'
p187
sg10
S'342.4'
p188
sg12
S'water'
p189
sg14
S'360.6'
p190
sg16
S'364.1'
p191
sg18
S'364.1'
p192
sg20
S'368.3'
p193
sa(dp194
g3
S'351.1'
p195
sg5
S'4.5'
p196
sg6
S'420.6'
p197
sg8
S'420.6'
p198
sg10
S'356.1'
p199
sg12
S'water'
p200
sg14
S'374.3'
p201
sg16
S'378.8'
p202
sg18
S'377.8'
p203
sg20
S'387.2'
p204
sa(dp205
g3
S'379.1'
p206
sg5
S'33.7'
p207
sg6
S'496.8'
p208
sg8
S'496.8'
p209
sg10
S'384.1'
p210
sg12
S'water'
p211
sg14
S'402.3'
p212
sg16
S'405.8'
p213
sg18
S'405.8'
p214
sg20
S'410.0'
p215
sa(dp216
g3
S'395.1'
p217
sg5
S'22.8'
p218
sg6
S'499.8'
p219
sg8
S'499.8'
p220
sg10
S'400.1'
p221
sg12
S'water'
p222
sg14
S'418.3'
p223
sg16
S'421.8'
p224
sg18
S'421.8'
p225
sg20
S'426.0'
p226
sa(dp227
g3
S'413.4'
p228
sg5
S'46.0'
p229
sg6
S'536.4'
p230
sg8
S'536.4'
p231
sg10
S'418.4'
p232
sg12
S'water'
p233
sg14
S'436.6'
p234
sg16
S'440.1'
p235
sg18
S'440.1'
p236
sg20
S'444.3'
p237
sa(dp238
g3
S'457.2'
p239
sg5
S'16.8'
p240
sg6
S'576.0'
p241
sg8
S'576.0'
p242
sg10
S'462.2'
p243
sg12
S'water'
p244
sg14
S'480.4'
p245
sg16
S'483.9'
p246
sg18
S'483.9'
p247
sg20
S'488.1'
p248
sa(dp249
g3
S'486.8'
p250
sg5
I0
sg6
S'552.8'
p251
sg8
S'539.4'
p252
sg10
S'491.8'
p253
sg12
S'water'
p254
sg14
S'510.0'
p255
sg16
S'513.5'
p256
sg18
S'513.5'
p257
sg20
S'517.7'
p258
sa(dp259
g3
S'496.3'
p260
sg5
I0
sg6
S'591.3'
p261
sg8
S'579.0'
p262
sg10
S'501.3'
p263
sg12
S'water'
p264
sg14
S'519.5'
p265
sg16
S'523.0'
p266
sg18
S'523.0'
p267
sg20
S'527.2'
p268
sa(dp269
g3
S'649.2'
p270
sg5
I0
sg6
S'768.2'
p271
sg8
S'700.8'
p272
sg10
S'654.2'
p273
sg12
S'water'
p274
sg14
S'672.4'
p275
sg16
S'675.9'
p276
sg18
S'675.9'
p277
sg20
S'680.1'
p278
sa(dp279
g3
S'706.4'
p280
sg5
I0
sg6
S'774.4'
p281
sg8
S'758.0'
p282
sg10
S'711.4'
p283
sg12
S'water'
p284
sg14
S'729.6'
p285
sg16
S'733.1'
p286
sg18
S'733.1'
p287
sg20
S'737.2'
p288
sa(dp289
g3
S'718.8'
p290
sg5
I0
sg6
S'802.8'
p291
sg8
S'770.4'
p292
sg10
S'723.8'
p293
sg12
S'water'
p294
sg14
S'742.0'
p295
sg16
S'745.5'
p296
sg18
S'745.5'
p297
sg20
S'749.7'
p298
sa(dp299
g3
S'780.2'
p300
sg5
I0
sg6
S'851.2'
p301
sg8
S'831.8'
p302
sg10
S'785.2'
p303
sg12
S'water'
p304
sg14
S'803.4'
p305
sg16
S'806.9'
p306
sg18
S'806.9'
p307
sg20
S'811.1'
p308
sa(dp309
g3
S'789.2'
p310
sg5
I0
sg6
S'858.2'
p311
sg8
S'840.8'
p312
sg10
S'794.2'
p313
sg12
S'water'
p314
sg14
S'812.4'
p315
sg16
S'815.9'
p316
sg18
S'815.9'
p317
sg20
S'820.1'
p318
sa(dp319
g3
S'791.1'
p320
sg5
S'11.3'
p321
sg6
S'871.4'
p322
sg8
S'871.4'
p323
sg10
S'796.1'
p324
sg12
S'water'
p325
sg14
S'814.6'
p326
sg16
S'821.6'
p327
sg18
S'817.8'
p328
sg20
S'830.0'
p329
sa(dp330
g3
S'792.5'
p331
sg5
S'37.9'
p332
sg6
S'946.4'
p333
sg8
S'946.4'
p334
sg10
S'797.5'
p335
sg12
S'water'
p336
sg14
S'837.0'
p337
sg16
S'848.6'
p338
sg18
S'822.9'
p339
sg20
S'863.0'
p340
sa(dp341
g3
S'800.3'
p342
sg5
S'26.5'
p343
sg6
S'906.8'
p344
sg8
S'906.8'
p345
sg10
S'805.3'
p346
sg12
S'water'
p347
sg14
S'836.4'
p348
sg16
S'833.9'
p349
sg18
S'830.3'
p350
sg20
S'844.1'
p351
sa(dp352
g3
S'800.7'
p353
sg5
S'30.3'
p354
sg6
S'911.0'
p355
sg8
S'911.0'
p356
sg10
S'805.7'
p357
sg12
S'water'
p358
sg14
S'825.8'
p359
sg16
S'836.3'
p360
sg18
S'829.9'
p361
sg20
S'848.9'
p362
sa(dp363
g3
S'880.2'
p364
sg5
S'3.4'
p365
sg6
S'950.6'
p366
sg8
S'950.6'
p367
sg10
S'885.2'
p368
sg12
S'water'
p369
sg14
S'903.4'
p370
sg16
S'906.9'
p371
sg18
S'906.9'
p372
sg20
S'911.1'
p373
sa(dp374
g3
S'893.6'
p375
sg5
I0
sg6
S'993.6'
p376
sg8
S'986.0'
p377
sg10
S'898.6'
p378
sg12
S'water'
p379
sg14
S'916.8'
p380
sg16
S'920.3'
p381
sg18
S'920.3'
p382
sg20
S'924.5'
p383
sa(dp384
g3
S'930.7'
p385
sg5
I0
sg6
S'995.7'
p386
sg8
S'990.2'
p387
sg10
S'935.7'
p388
sg12
S'water'
p389
sg14
S'953.9'
p390
sg16
S'957.4'
p391
sg18
S'957.4'
p392
sg20
S'961.6'
p393
sa(dp394
g3
S'968.1'
p395
sg5
I0
sg6
S'1077.1'
p396
sg8
S'1025.6'
p397
sg10
S'973.1'
p398
sg12
S'water'
p399
sg14
S'991.3'
p400
sg16
S'994.8'
p401
sg18
S'994.8'
p402
sg20
S'999.0'
p403
sa(dp404
g3
S'1024.4'
p405
sg5
I0
sg6
S'1138.4'
p406
sg8
S'1076.0'
p407
sg10
S'1029.4'
p408
sg12
S'water'
p409
sg14
S'1047.6'
p410
sg16
S'1051.1'
p411
sg18
S'1051.1'
p412
sg20
S'1055.3'
p413
sa(dp414
g3
S'1027.3'
p415
sg5
I0
sg6
S'1093.3'
p416
sg8
S'1078.9'
p417
sg10
S'1032.3'
p418
sg12
S'water'
p419
sg14
S'1050.5'
p420
sg16
S'1054.0'
p421
sg18
S'1054.0'
p422
sg20
S'1058.2'
p423
sa(dp424
g3
S'1073.1'
p425
sg5
I0
sg6
S'1185.1'
p426
sg8
S'1124.7'
p427
sg10
S'1078.1'
p428
sg12
S'water'
p429
sg14
S'1096.3'
p430
sg16
S'1099.8'
p431
sg18
S'1099.8'
p432
sg20
S'1104.0'
p433
saF101.38000000000001
F31.231818181818173
I22
t.