((lp1
(dp2
S'Arrival'
p3
S'27.3'
p4
sS'Late'
p5
I0
sS'Depart'
p6
S'148.3'
p7
sS'POWER'
p8
S'93.3'
p9
sS'Power_time'
p10
S'54.0'
p11
sS'Bag_time'
p12
S'28.0'
p13
sS'WATER'
p14
S'water'
p15
sS'BAGGAGE'
p16
S'67.3'
p17
sS'CATER'
p18
S'76.3'
p19
sS'LANDING'
p20
S'32.3'
p21
sS'CLEAN'
p22
S'75.3'
p23
sS'FUEL'
p24
S'74.3'
p25
sa(dp26
g3
S'39.9'
p27
sg5
I0
sg6
S'155.9'
p28
sg8
S'95.9'
p29
sg10
S'44.0'
p30
sg12
S'16.0'
p31
sg14
S'water'
p32
sg16
S'67.9'
p33
sg18
S'73.9'
p34
sg20
S'44.9'
p35
sg22
S'69.9'
p36
sg24
S'75.9'
p37
sa(dp38
g3
S'72.3'
p39
sg5
I0
sg6
S'189.3'
p40
sg8
S'139.9'
p41
sg10
S'44.0'
p42
sg12
S'16.0'
p43
sg14
S'water'
p44
sg16
S'100.3'
p45
sg18
S'106.3'
p46
sg20
S'77.3'
p47
sg22
S'102.3'
p48
sg24
S'108.3'
p49
sa(dp50
g3
S'79.5'
p51
sg5
I0
sg6
S'157.5'
p52
sg8
S'137.3'
p53
sg10
S'44.0'
p54
sg12
S'16.0'
p55
sg14
S'water'
p56
sg16
S'107.5'
p57
sg18
S'113.5'
p58
sg20
S'84.5'
p59
sg22
S'109.5'
p60
sg24
S'115.5'
p61
sa(dp62
g3
S'118.0'
p63
sg5
I0
sg6
S'233.1'
p64
sg8
S'176.9'
p65
sg10
S'39.6'
p66
sg12
S'11.2'
p67
sg14
S'water'
p68
sg16
S'141.2'
p69
sg18
S'147.6'
p70
sg20
S'123.0'
p71
sg22
S'144.8'
p72
sg24
S'149.0'
p73
sa(dp74
g3
S'128.2'
p75
sg5
I0
sg6
S'250.2'
p76
sg8
S'184.2'
p77
sg10
S'44.0'
p78
sg12
S'16.0'
p79
sg14
S'water'
p80
sg16
S'156.2'
p81
sg18
S'162.2'
p82
sg20
S'133.2'
p83
sg22
S'158.2'
p84
sg24
S'164.2'
p85
sa(dp86
g3
S'144.1'
p87
sg5
I0
sg6
S'248.1'
p88
sg8
S'220.9'
p89
sg10
S'44.0'
p90
sg12
S'16.0'
p91
sg14
S'water'
p92
sg16
S'172.1'
p93
sg18
S'178.1'
p94
sg20
S'149.1'
p95
sg22
S'174.1'
p96
sg24
S'180.1'
p97
sa(dp98
g3
S'159.5'
p99
sg5
I0
sg6
S'253.5'
p100
sg8
S'228.2'
p101
sg10
S'44.0'
p102
sg12
S'16.0'
p103
sg14
S'water'
p104
sg16
S'187.5'
p105
sg18
S'193.5'
p106
sg20
S'164.5'
p107
sg22
S'189.5'
p108
sg24
S'195.5'
p109
sa(dp110
g3
S'174.2'
p111
sg5
I0
sg6
S'265.1'
p112
sg8
S'264.9'
p113
sg10
S'44.0'
p114
sg12
S'16.0'
p115
sg14
S'water'
p116
sg16
S'202.2'
p117
sg18
S'208.2'
p118
sg20
S'179.2'
p119
sg22
S'204.2'
p120
sg24
S'210.2'
p121
sa(dp122
g3
S'204.6'
p123
sg5
I0
sg6
S'277.6'
p124
sg8
S'267.8'
p125
sg10
S'39.6'
p126
sg12
S'11.2'
p127
sg14
S'water'
p128
sg16
S'227.8'
p129
sg18
S'234.1'
p130
sg20
S'209.6'
p131
sg22
S'231.3'
p132
sg24
S'235.5'
p133
sa(dp134
g3
S'211.7'
p135
sg5
I0
sg6
S'312.7'
p136
sg8
S'308.9'
p137
sg10
S'44.0'
p138
sg12
S'16.0'
p139
sg14
S'water'
p140
sg16
S'239.7'
p141
sg18
S'245.7'
p142
sg20
S'216.7'
p143
sg22
S'241.7'
p144
sg24
S'247.7'
p145
sa(dp146
g3
S'213.1'
p147
sg5
S'20.8'
p148
sg6
S'352.9'
p149
sg8
S'352.9'
p150
sg10
S'44.0'
p151
sg12
S'16.0'
p152
sg14
S'water'
p153
sg16
S'243.8'
p154
sg18
S'256.1'
p155
sg20
S'218.1'
p156
sg22
S'249.3'
p157
sg24
S'259.5'
p158
sa(dp159
g3
S'223.7'
p160
sg5
I0
sg6
S'312.7'
p161
sg8
S'311.8'
p162
sg10
S'44.0'
p163
sg12
S'16.0'
p164
sg14
S'water'
p165
sg16
S'255.7'
p166
sg18
S'267.7'
p167
sg20
S'228.7'
p168
sg22
S'259.7'
p169
sg24
S'271.7'
p170
sa(dp171
g3
S'256.6'
p172
sg5
I0
sg6
S'355.8'
p173
sg8
S'355.8'
p174
sg10
S'44.0'
p175
sg12
S'16.0'
p176
sg14
S'water'
p177
sg16
S'284.6'
p178
sg18
S'290.6'
p179
sg20
S'261.6'
p180
sg22
S'286.6'
p181
sg24
S'292.6'
p182
sa(dp183
g3
S'283.3'
p184
sg5
S'19.5'
p185
sg6
S'399.8'
p186
sg8
S'399.8'
p187
sg10
S'44.0'
p188
sg12
S'16.0'
p189
sg14
S'water'
p190
sg16
S'311.3'
p191
sg18
S'317.3'
p192
sg20
S'288.3'
p193
sg22
S'313.3'
p194
sg24
S'319.3'
p195
sa(dp196
g3
S'298.3'
p197
sg5
S'16.6'
p198
sg6
S'396.9'
p199
sg8
S'396.9'
p200
sg10
S'44.0'
p201
sg12
S'16.0'
p202
sg14
S'water'
p203
sg16
S'326.3'
p204
sg18
S'332.3'
p205
sg20
S'303.3'
p206
sg22
S'328.3'
p207
sg24
S'334.3'
p208
sa(dp209
g3
S'339.0'
p210
sg5
I0
sg6
S'447.0'
p211
sg8
S'440.9'
p212
sg10
S'44.0'
p213
sg12
S'16.0'
p214
sg14
S'water'
p215
sg16
S'367.0'
p216
sg18
S'373.0'
p217
sg20
S'344.0'
p218
sg22
S'369.0'
p219
sg24
S'375.0'
p220
sa(dp221
g3
S'418.1'
p222
sg5
I0
sg6
S'509.1'
p223
sg8
S'474.1'
p224
sg10
S'44.0'
p225
sg12
S'16.0'
p226
sg14
S'water'
p227
sg16
S'446.1'
p228
sg18
S'452.1'
p229
sg20
S'423.1'
p230
sg22
S'448.1'
p231
sg24
S'454.1'
p232
sa(dp233
g3
S'455.9'
p234
sg5
I0
sg6
S'565.9'
p235
sg8
S'511.9'
p236
sg10
S'44.0'
p237
sg12
S'16.0'
p238
sg14
S'water'
p239
sg16
S'483.9'
p240
sg18
S'489.9'
p241
sg20
S'460.9'
p242
sg22
S'485.9'
p243
sg24
S'491.9'
p244
sa(dp245
g3
S'545.7'
p246
sg5
I0
sg6
S'638.7'
p247
sg8
S'601.7'
p248
sg10
S'44.0'
p249
sg12
S'16.0'
p250
sg14
S'water'
p251
sg16
S'573.7'
p252
sg18
S'579.7'
p253
sg20
S'550.7'
p254
sg22
S'575.7'
p255
sg24
S'581.7'
p256
sa(dp257
g3
S'585.4'
p258
sg5
I0
sg6
S'681.4'
p259
sg8
S'651.4'
p260
sg10
S'54.0'
p261
sg12
S'28.0'
p262
sg14
S'water'
p263
sg16
S'625.4'
p264
sg18
S'634.4'
p265
sg20
S'590.4'
p266
sg22
S'633.4'
p267
sg24
S'632.4'
p268
sa(dp269
g3
S'603.8'
p270
sg5
I0
sg6
S'703.8'
p271
sg8
S'659.8'
p272
sg10
S'44.0'
p273
sg12
S'16.0'
p274
sg14
S'water'
p275
sg16
S'631.8'
p276
sg18
S'637.8'
p277
sg20
S'608.8'
p278
sg22
S'633.8'
p279
sg24
S'639.8'
p280
sa(dp281
g3
S'613.3'
p282
sg5
I0
sg6
S'718.3'
p283
sg8
S'703.8'
p284
sg10
S'44.0'
p285
sg12
S'16.0'
p286
sg14
S'water'
p287
sg16
S'641.4'
p288
sg18
S'656.4'
p289
sg20
S'618.3'
p290
sg22
S'651.4'
p291
sg24
S'656.4'
p292
sa(dp293
g3
S'621.4'
p294
sg5
I0
sg6
S'739.4'
p295
sg8
S'739.4'
p296
sg10
S'44.0'
p297
sg12
S'16.0'
p298
sg14
S'water'
p299
sg16
S'649.4'
p300
sg18
S'659.8'
p301
sg20
S'626.4'
p302
sg22
S'651.8'
p303
sg24
S'663.8'
p304
sa(dp305
g3
S'628.3'
p306
sg5
I0
sg6
S'711.3'
p307
sg8
S'695.4'
p308
sg10
S'44.0'
p309
sg12
S'16.0'
p310
sg14
S'water'
p311
sg16
S'657.4'
p312
sg18
S'678.4'
p313
sg20
S'633.3'
p314
sg22
S'669.4'
p315
sg24
S'680.4'
p316
sa(dp317
g3
S'638.5'
p318
sg5
S'29.3'
p319
sg6
S'791.8'
p320
sg8
S'791.8'
p321
sg10
S'44.0'
p322
sg12
S'16.0'
p323
sg14
S'water'
p324
sg16
S'666.5'
p325
sg18
S'681.8'
p326
sg20
S'643.5'
p327
sg22
S'669.8'
p328
sg24
S'687.8'
p329
sa(dp330
g3
S'676.3'
p331
sg5
I0
sg6
S'747.8'
p332
sg8
S'747.8'
p333
sg10
S'44.0'
p334
sg12
S'16.0'
p335
sg14
S'water'
p336
sg16
S'704.3'
p337
sg18
S'710.3'
p338
sg20
S'681.3'
p339
sg22
S'706.3'
p340
sg24
S'712.3'
p341
sa(dp342
g3
S'688.1'
p343
sg5
S'30.3'
p344
sg6
S'783.4'
p345
sg8
S'783.4'
p346
sg10
S'44.0'
p347
sg12
S'16.0'
p348
sg14
S'water'
p349
sg16
S'716.1'
p350
sg18
S'722.1'
p351
sg20
S'693.1'
p352
sg22
S'718.1'
p353
sg24
S'724.1'
p354
sa(dp355
g3
S'746.8'
p356
sg5
I0
sg6
S'829.8'
p357
sg8
S'827.4'
p358
sg10
S'44.0'
p359
sg12
S'16.0'
p360
sg14
S'water'
p361
sg16
S'774.8'
p362
sg18
S'780.8'
p363
sg20
S'751.8'
p364
sg22
S'776.8'
p365
sg24
S'782.8'
p366
sa(dp367
g3
S'814.6'
p368
sg5
I0
sg6
S'930.6'
p369
sg8
S'870.6'
p370
sg10
S'44.0'
p371
sg12
S'16.0'
p372
sg14
S'water'
p373
sg16
S'842.6'
p374
sg18
S'848.6'
p375
sg20
S'819.6'
p376
sg22
S'844.6'
p377
sg24
S'850.6'
p378
sa(dp379
g3
S'817.1'
p380
sg5
I0
sg6
S'910.1'
p381
sg8
S'873.1'
p382
sg10
S'44.0'
p383
sg12
S'16.0'
p384
sg14
S'water'
p385
sg16
S'845.1'
p386
sg18
S'851.1'
p387
sg20
S'822.1'
p388
sg22
S'847.1'
p389
sg24
S'853.1'
p390
sa(dp391
g3
S'839.2'
p392
sg5
I0
sg6
S'959.2'
p393
sg8
S'914.6'
p394
sg10
S'44.0'
p395
sg12
S'16.0'
p396
sg14
S'water'
p397
sg16
S'867.2'
p398
sg18
S'873.2'
p399
sg20
S'844.2'
p400
sg22
S'869.2'
p401
sg24
S'875.2'
p402
sa(dp403
g3
S'872.6'
p404
sg5
I0
sg6
S'951.6'
p405
sg8
S'928.6'
p406
sg10
S'44.0'
p407
sg12
S'16.0'
p408
sg14
S'water'
p409
sg16
S'900.6'
p410
sg18
S'906.6'
p411
sg20
S'877.6'
p412
sg22
S'902.6'
p413
sg24
S'908.6'
p414
sa(dp415
g3
S'891.9'
p416
sg5
I0
sg6
S'972.6'
p417
sg8
S'972.6'
p418
sg10
S'44.0'
p419
sg12
S'16.0'
p420
sg14
S'water'
p421
sg16
S'919.9'
p422
sg18
S'925.9'
p423
sg20
S'896.9'
p424
sg22
S'921.9'
p425
sg24
S'927.9'
p426
sa(dp427
g3
S'895.5'
p428
sg5
I0
sg6
S'960.5'
p429
sg8
S'958.6'
p430
sg10
S'44.0'
p431
sg12
S'16.0'
p432
sg14
S'water'
p433
sg16
S'923.5'
p434
sg18
S'929.5'
p435
sg20
S'900.5'
p436
sg22
S'925.5'
p437
sg24
S'932.6'
p438
sa(dp439
g3
S'990.3'
p440
sg5
I0
sg6
S'1085.3'
p441
sg8
S'1056.3'
p442
sg10
S'54.0'
p443
sg12
S'28.0'
p444
sg14
S'water'
p445
sg16
S'1030.3'
p446
sg18
S'1039.3'
p447
sg20
S'995.3'
p448
sg22
S'1038.3'
p449
sg24
S'1037.3'
p450
sa(dp451
g3
S'1002.8'
p452
sg5
I0
sg6
S'1093.8'
p453
sg8
S'1058.8'
p454
sg10
S'44.0'
p455
sg12
S'16.0'
p456
sg14
S'water'
p457
sg16
S'1030.8'
p458
sg18
S'1036.8'
p459
sg20
S'1007.8'
p460
sg22
S'1032.8'
p461
sg24
S'1038.8'
p462
sa(dp463
g3
S'1036.0'
p464
sg5
I0
sg6
S'1132.0'
p465
sg8
S'1100.3'
p466
sg10
S'44.0'
p467
sg12
S'16.0'
p468
sg14
S'water'
p469
sg16
S'1064.0'
p470
sg18
S'1070.0'
p471
sg20
S'1041.0'
p472
sg22
S'1066.0'
p473
sg24
S'1072.0'
p474
sa(dp475
g3
S'1050.0'
p476
sg5
I0
sg6
S'1158.0'
p477
sg8
S'1106.0'
p478
sg10
S'44.0'
p479
sg12
S'16.0'
p480
sg14
S'water'
p481
sg16
S'1078.0'
p482
sg18
S'1084.0'
p483
sg20
S'1055.0'
p484
sg22
S'1080.0'
p485
sg24
S'1086.0'
p486
sa(dp487
g3
S'1056.8'
p488
sg5
I0
sg6
S'1176.8'
p489
sg8
S'1144.3'
p490
sg10
S'44.0'
p491
sg12
S'16.0'
p492
sg14
S'water'
p493
sg16
S'1084.8'
p494
sg18
S'1092.0'
p495
sg20
S'1061.8'
p496
sg22
S'1086.8'
p497
sg24
S'1096.0'
p498
saF101.14749999999999
F23.300000000000001
I5
t.