((lp1
(dp2
S'Arrival'
p3
S'22.8'
p4
sS'Late'
p5
I0
sS'Depart'
p6
S'129.8'
p7
sS'POWER'
p8
S'74.4'
p9
sS'LANDING'
p10
S'27.8'
p11
sS'WATER'
p12
S'water'
p13
sS'BAGGAGE'
p14
S'46.0'
p15
sS'CATER'
p16
S'49.5'
p17
sS'CLEAN'
p18
S'49.5'
p19
sS'FUEL'
p20
S'53.7'
p21
sa(dp22
g3
S'25.0'
p23
sg5
I0
sg6
S'144.0'
p24
sg8
S'76.6'
p25
sg10
S'30.0'
p26
sg12
S'water'
p27
sg14
S'48.2'
p28
sg16
S'51.7'
p29
sg18
S'51.7'
p30
sg20
S'55.9'
p31
sa(dp32
g3
S'36.7'
p33
sg5
I0
sg6
S'138.7'
p34
sg8
S'88.3'
p35
sg10
S'41.7'
p36
sg12
S'water'
p37
sg14
S'59.9'
p38
sg16
S'63.4'
p39
sg18
S'63.4'
p40
sg20
S'67.6'
p41
sa(dp42
g3
S'73.7'
p43
sg5
I0
sg6
S'136.7'
p44
sg8
S'125.3'
p45
sg10
S'78.7'
p46
sg12
S'water'
p47
sg14
S'96.9'
p48
sg16
S'100.4'
p49
sg18
S'100.4'
p50
sg20
S'104.6'
p51
sa(dp52
g3
S'84.2'
p53
sg5
I0
sg6
S'190.2'
p54
sg8
S'135.8'
p55
sg10
S'89.2'
p56
sg12
S'water'
p57
sg14
S'107.4'
p58
sg16
S'110.9'
p59
sg18
S'110.9'
p60
sg20
S'115.1'
p61
sa(dp62
g3
S'102.9'
p63
sg5
I0
sg6
S'175.9'
p64
sg8
S'154.5'
p65
sg10
S'107.9'
p66
sg12
S'water'
p67
sg14
S'126.1'
p68
sg16
S'129.6'
p69
sg18
S'129.6'
p70
sg20
S'133.8'
p71
sa(dp72
g3
S'117.3'
p73
sg5
I0
sg6
S'184.3'
p74
sg8
S'168.9'
p75
sg10
S'122.3'
p76
sg12
S'water'
p77
sg14
S'140.5'
p78
sg16
S'144.0'
p79
sg18
S'144.0'
p80
sg20
S'148.2'
p81
sa(dp82
g3
S'176.1'
p83
sg5
I0
sg6
S'277.1'
p84
sg8
S'227.7'
p85
sg10
S'181.1'
p86
sg12
S'water'
p87
sg14
S'199.3'
p88
sg16
S'202.8'
p89
sg18
S'202.8'
p90
sg20
S'207.0'
p91
sa(dp92
g3
S'185.2'
p93
sg5
I0
sg6
S'300.2'
p94
sg8
S'236.8'
p95
sg10
S'190.2'
p96
sg12
S'water'
p97
sg14
S'208.4'
p98
sg16
S'211.9'
p99
sg18
S'211.9'
p100
sg20
S'216.1'
p101
sa(dp102
g3
S'215.9'
p103
sg5
I0
sg6
S'321.9'
p104
sg8
S'267.5'
p105
sg10
S'220.9'
p106
sg12
S'water'
p107
sg14
S'239.1'
p108
sg16
S'242.6'
p109
sg18
S'242.6'
p110
sg20
S'246.8'
p111
sa(dp112
g3
S'217.8'
p113
sg5
I0
sg6
S'294.8'
p114
sg8
S'269.4'
p115
sg10
S'222.8'
p116
sg12
S'water'
p117
sg14
S'241.0'
p118
sg16
S'244.5'
p119
sg18
S'244.5'
p120
sg20
S'248.7'
p121
sa(dp122
g3
S'223.6'
p123
sg5
S'19.1'
p124
sg6
S'346.8'
p125
sg8
S'346.8'
p126
sg10
S'228.6'
p127
sg12
S'water'
p128
sg14
S'275.6'
p129
sg16
S'257.6'
p130
sg18
S'271.6'
p131
sg20
S'270.6'
p132
sa(dp133
g3
S'237.2'
p134
sg5
I0
sg6
S'307.1'
p135
sg8
S'307.1'
p136
sg10
S'242.2'
p137
sg12
S'water'
p138
sg14
S'260.4'
p139
sg16
S'263.9'
p140
sg18
S'263.9'
p141
sg20
S'268.1'
p142
sa(dp143
g3
S'259.3'
p144
sg5
I0
sg6
S'327.3'
p145
sg8
S'310.9'
p146
sg10
S'264.3'
p147
sg12
S'water'
p148
sg14
S'282.5'
p149
sg16
S'286.0'
p150
sg18
S'286.0'
p151
sg20
S'290.2'
p152
sa(dp153
g3
S'357.9'
p154
sg5
S'49.0'
p155
sg6
S'479.9'
p156
sg8
S'479.9'
p157
sg10
S'362.9'
p158
sg12
S'water'
p159
sg14
S'409.9'
p160
sg16
S'391.9'
p161
sg18
S'405.9'
p162
sg20
S'404.9'
p163
sa(dp164
g3
S'417.1'
p165
sg5
I0
sg6
S'503.1'
p166
sg8
S'468.7'
p167
sg10
S'422.1'
p168
sg12
S'water'
p169
sg14
S'440.3'
p170
sg16
S'443.8'
p171
sg18
S'443.8'
p172
sg20
S'448.0'
p173
sa(dp174
g3
S'420.7'
p175
sg5
I0
sg6
S'489.7'
p176
sg8
S'472.3'
p177
sg10
S'425.7'
p178
sg12
S'water'
p179
sg14
S'443.9'
p180
sg16
S'447.4'
p181
sg18
S'447.4'
p182
sg20
S'451.6'
p183
sa(dp184
g3
S'456.0'
p185
sg5
I0
sg6
S'530.0'
p186
sg8
S'508.3'
p187
sg10
S'461.0'
p188
sg12
S'water'
p189
sg14
S'479.2'
p190
sg16
S'482.7'
p191
sg18
S'482.7'
p192
sg20
S'486.9'
p193
sa(dp194
g3
S'471.2'
p195
sg5
I0
sg6
S'554.2'
p196
sg8
S'522.8'
p197
sg10
S'476.2'
p198
sg12
S'water'
p199
sg14
S'494.4'
p200
sg16
S'497.9'
p201
sg18
S'497.9'
p202
sg20
S'502.1'
p203
sa(dp204
g3
S'549.7'
p205
sg5
I0
sg6
S'656.7'
p206
sg8
S'601.3'
p207
sg10
S'554.7'
p208
sg12
S'water'
p209
sg14
S'572.9'
p210
sg16
S'576.4'
p211
sg18
S'576.4'
p212
sg20
S'580.6'
p213
sa(dp214
g3
S'557.1'
p215
sg5
I0
sg6
S'672.1'
p216
sg8
S'608.7'
p217
sg10
S'562.1'
p218
sg12
S'water'
p219
sg14
S'580.3'
p220
sg16
S'583.8'
p221
sg18
S'583.8'
p222
sg20
S'588.0'
p223
sa(dp224
g3
S'611.7'
p225
sg5
I0
sg6
S'680.7'
p226
sg8
S'663.3'
p227
sg10
S'616.7'
p228
sg12
S'water'
p229
sg14
S'634.9'
p230
sg16
S'638.4'
p231
sg18
S'638.4'
p232
sg20
S'642.6'
p233
sa(dp234
g3
S'627.1'
p235
sg5
I0
sg6
S'709.1'
p236
sg8
S'678.7'
p237
sg10
S'632.1'
p238
sg12
S'water'
p239
sg14
S'650.3'
p240
sg16
S'653.8'
p241
sg18
S'653.8'
p242
sg20
S'658.0'
p243
sa(dp244
g3
S'659.4'
p245
sg5
I0
sg6
S'779.4'
p246
sg8
S'711.0'
p247
sg10
S'664.4'
p248
sg12
S'water'
p249
sg14
S'682.6'
p250
sg16
S'686.1'
p251
sg18
S'686.1'
p252
sg20
S'690.3'
p253
sa(dp254
g3
S'690.0'
p255
sg5
I0
sg6
S'762.0'
p256
sg8
S'741.6'
p257
sg10
S'695.0'
p258
sg12
S'water'
p259
sg14
S'713.2'
p260
sg16
S'716.7'
p261
sg18
S'716.7'
p262
sg20
S'720.9'
p263
sa(dp264
g3
S'731.4'
p265
sg5
I0
sg6
S'832.4'
p266
sg8
S'783.0'
p267
sg10
S'736.4'
p268
sg12
S'water'
p269
sg14
S'754.6'
p270
sg16
S'758.1'
p271
sg18
S'758.1'
p272
sg20
S'762.3'
p273
sa(dp274
g3
S'738.2'
p275
sg5
I0
sg6
S'799.2'
p276
sg8
S'789.8'
p277
sg10
S'743.2'
p278
sg12
S'water'
p279
sg14
S'761.4'
p280
sg16
S'764.9'
p281
sg18
S'764.9'
p282
sg20
S'769.1'
p283
sa(dp284
g3
S'766.4'
p285
sg5
I0
sg6
S'853.4'
p286
sg8
S'818.0'
p287
sg10
S'771.4'
p288
sg12
S'water'
p289
sg14
S'789.6'
p290
sg16
S'793.1'
p291
sg18
S'793.1'
p292
sg20
S'797.3'
p293
sa(dp294
g3
S'779.8'
p295
sg5
I0
sg6
S'889.8'
p296
sg8
S'831.4'
p297
sg10
S'784.8'
p298
sg12
S'water'
p299
sg14
S'803.0'
p300
sg16
S'806.5'
p301
sg18
S'806.5'
p302
sg20
S'810.7'
p303
sa(dp304
g3
S'802.3'
p305
sg5
I0
sg6
S'903.3'
p306
sg8
S'853.9'
p307
sg10
S'807.3'
p308
sg12
S'water'
p309
sg14
S'825.5'
p310
sg16
S'829.0'
p311
sg18
S'829.0'
p312
sg20
S'833.2'
p313
sa(dp314
g3
S'845.1'
p315
sg5
I0
sg6
S'960.1'
p316
sg8
S'896.7'
p317
sg10
S'850.1'
p318
sg12
S'water'
p319
sg14
S'868.3'
p320
sg16
S'871.8'
p321
sg18
S'871.8'
p322
sg20
S'876.0'
p323
sa(dp324
g3
S'849.5'
p325
sg5
I0
sg6
S'925.5'
p326
sg8
S'901.1'
p327
sg10
S'854.5'
p328
sg12
S'water'
p329
sg14
S'872.7'
p330
sg16
S'876.2'
p331
sg18
S'876.2'
p332
sg20
S'880.4'
p333
sa(dp334
g3
S'894.0'
p335
sg5
I0
sg6
S'1002.0'
p336
sg8
S'945.6'
p337
sg10
S'899.0'
p338
sg12
S'water'
p339
sg14
S'917.2'
p340
sg16
S'920.7'
p341
sg18
S'920.7'
p342
sg20
S'924.9'
p343
sa(dp344
g3
S'901.8'
p345
sg5
I0
sg6
S'1009.8'
p346
sg8
S'953.4'
p347
sg10
S'906.8'
p348
sg12
S'water'
p349
sg14
S'925.0'
p350
sg16
S'928.5'
p351
sg18
S'928.5'
p352
sg20
S'932.7'
p353
sa(dp354
g3
S'929.9'
p355
sg5
I0
sg6
S'1006.9'
p356
sg8
S'981.5'
p357
sg10
S'934.9'
p358
sg12
S'water'
p359
sg14
S'953.1'
p360
sg16
S'956.6'
p361
sg18
S'956.6'
p362
sg20
S'960.8'
p363
sa(dp364
g3
S'970.2'
p365
sg5
I0
sg6
S'1042.2'
p366
sg8
S'1021.8'
p367
sg10
S'975.2'
p368
sg12
S'water'
p369
sg14
S'993.4'
p370
sg16
S'996.9'
p371
sg18
S'996.9'
p372
sg20
S'1001.1'
p373
sa(dp374
g3
S'971.4'
p375
sg5
I0
sg6
S'1043.4'
p376
sg8
S'1023.0'
p377
sg10
S'976.4'
p378
sg12
S'water'
p379
sg14
S'994.6'
p380
sg16
S'998.1'
p381
sg18
S'998.1'
p382
sg20
S'1002.3'
p383
sa(dp384
g3
S'972.3'
p385
sg5
I0
sg6
S'1046.3'
p386
sg8
S'1023.9'
p387
sg10
S'977.3'
p388
sg12
S'water'
p389
sg14
S'995.5'
p390
sg16
S'999.0'
p391
sg18
S'999.0'
p392
sg20
S'1003.2'
p393
sa(dp394
g3
S'973.9'
p395
sg5
I0
sg6
S'1089.9'
p396
sg8
S'1061.4'
p397
sg10
S'978.9'
p398
sg12
S'water'
p399
sg14
S'1004.6'
p400
sg16
S'1011.6'
p401
sg18
S'1003.9'
p402
sg20
S'1020.0'
p403
sa(dp404
g3
S'1042.4'
p405
sg5
I0
sg6
S'1112.4'
p406
sg8
S'1094.0'
p407
sg10
S'1047.4'
p408
sg12
S'water'
p409
sg14
S'1065.6'
p410
sg16
S'1069.1'
p411
sg18
S'1069.1'
p412
sg20
S'1073.3'
p413
saF91.102500000000006
F34.049999999999997
I2
t.