((lp1
(dp2
S'Arrival'
p3
S'5.2'
p4
sS'Late'
p5
I0
sS'Depart'
p6
S'88.2'
p7
sS'POWER'
p8
S'56.8'
p9
sS'LANDING'
p10
S'10.2'
p11
sS'WATER'
p12
S'water'
p13
sS'BAGGAGE'
p14
S'28.4'
p15
sS'CATER'
p16
S'31.9'
p17
sS'CLEAN'
p18
S'31.9'
p19
sS'FUEL'
p20
S'36.1'
p21
sa(dp22
g3
S'20.5'
p23
sg5
I0
sg6
S'89.5'
p24
sg8
S'72.1'
p25
sg10
S'25.5'
p26
sg12
S'water'
p27
sg14
S'43.7'
p28
sg16
S'47.2'
p29
sg18
S'47.2'
p30
sg20
S'51.4'
p31
sa(dp32
g3
S'42.5'
p33
sg5
I0
sg6
S'141.5'
p34
sg8
S'96.4'
p35
sg10
S'47.5'
p36
sg12
S'water'
p37
sg14
S'65.7'
p38
sg16
S'69.2'
p39
sg18
S'69.2'
p40
sg20
S'73.4'
p41
sa(dp42
g3
S'74.0'
p43
sg5
I0
sg6
S'149.0'
p44
sg8
S'125.6'
p45
sg10
S'79.0'
p46
sg12
S'water'
p47
sg14
S'97.2'
p48
sg16
S'100.7'
p49
sg18
S'100.7'
p50
sg20
S'104.9'
p51
sa(dp52
g3
S'89.1'
p53
sg5
I0
sg6
S'175.1'
p54
sg8
S'140.7'
p55
sg10
S'94.1'
p56
sg12
S'water'
p57
sg14
S'112.3'
p58
sg16
S'115.8'
p59
sg18
S'115.8'
p60
sg20
S'120.0'
p61
sa(dp62
g3
S'89.6'
p63
sg5
S'2.7'
p64
sg6
S'165.2'
p65
sg8
S'165.2'
p66
sg10
S'94.6'
p67
sg12
S'water'
p68
sg14
S'112.8'
p69
sg16
S'116.3'
p70
sg18
S'116.3'
p71
sg20
S'123.8'
p72
sa(dp73
g3
S'97.2'
p74
sg5
S'1.1'
p75
sg6
S'180.3'
p76
sg8
S'180.3'
p77
sg10
S'102.2'
p78
sg12
S'water'
p79
sg14
S'123.5'
p80
sg16
S'130.5'
p81
sg18
S'123.9'
p82
sg20
S'138.9'
p83
sa(dp84
g3
S'103.3'
p85
sg5
I0
sg6
S'212.3'
p86
sg8
S'204.8'
p87
sg10
S'108.3'
p88
sg12
S'water'
p89
sg14
S'126.5'
p90
sg16
S'131.0'
p91
sg18
S'130.0'
p92
sg20
S'142.7'
p93
sa(dp94
g3
S'122.8'
p95
sg5
S'74.5'
p96
sg6
S'290.3'
p97
sg8
S'290.3'
p98
sg10
S'127.8'
p99
sg12
S'water'
p100
sg14
S'174.8'
p101
sg16
S'156.8'
p102
sg18
S'170.8'
p103
sg20
S'173.9'
p104
sa(dp105
g3
S'146.8'
p106
sg5
I0
sg6
S'261.8'
p107
sg8
S'244.4'
p108
sg10
S'151.8'
p109
sg12
S'water'
p110
sg14
S'170.0'
p111
sg16
S'173.5'
p112
sg18
S'173.5'
p113
sg20
S'177.7'
p114
sa(dp115
g3
S'241.0'
p116
sg5
I0
sg6
S'329.0'
p117
sg8
S'292.6'
p118
sg10
S'246.0'
p119
sg12
S'water'
p120
sg14
S'264.2'
p121
sg16
S'267.7'
p122
sg18
S'267.7'
p123
sg20
S'271.9'
p124
sa(dp125
g3
S'256.4'
p126
sg5
I0
sg6
S'346.4'
p127
sg8
S'329.9'
p128
sg10
S'261.4'
p129
sg12
S'water'
p130
sg14
S'279.6'
p131
sg16
S'283.1'
p132
sg18
S'283.1'
p133
sg20
S'287.3'
p134
sa(dp135
g3
S'269.8'
p136
sg5
I0
sg6
S'387.8'
p137
sg8
S'332.2'
p138
sg10
S'274.8'
p139
sg12
S'water'
p140
sg14
S'293.0'
p141
sg16
S'296.5'
p142
sg18
S'296.5'
p143
sg20
S'300.7'
p144
sa(dp145
g3
S'343.1'
p146
sg5
I0
sg6
S'406.1'
p147
sg8
S'394.7'
p148
sg10
S'348.1'
p149
sg12
S'water'
p150
sg14
S'366.3'
p151
sg16
S'369.8'
p152
sg18
S'369.8'
p153
sg20
S'374.0'
p154
sa(dp155
g3
S'388.5'
p156
sg5
I0
sg6
S'478.5'
p157
sg8
S'440.1'
p158
sg10
S'393.5'
p159
sg12
S'water'
p160
sg14
S'411.7'
p161
sg16
S'415.2'
p162
sg18
S'415.2'
p163
sg20
S'419.4'
p164
sa(dp165
g3
S'400.6'
p166
sg5
I0
sg6
S'478.6'
p167
sg8
S'452.2'
p168
sg10
S'405.6'
p169
sg12
S'water'
p170
sg14
S'423.8'
p171
sg16
S'427.3'
p172
sg18
S'427.3'
p173
sg20
S'431.5'
p174
sa(dp175
g3
S'448.5'
p176
sg5
I0
sg6
S'535.5'
p177
sg8
S'500.1'
p178
sg10
S'453.5'
p179
sg12
S'water'
p180
sg14
S'471.7'
p181
sg16
S'475.2'
p182
sg18
S'475.2'
p183
sg20
S'479.4'
p184
sa(dp185
g3
S'473.6'
p186
sg5
I0
sg6
S'545.6'
p187
sg8
S'525.2'
p188
sg10
S'478.6'
p189
sg12
S'water'
p190
sg14
S'496.8'
p191
sg16
S'500.3'
p192
sg18
S'500.3'
p193
sg20
S'504.5'
p194
sa(dp195
g3
S'577.2'
p196
sg5
I0
sg6
S'656.2'
p197
sg8
S'628.8'
p198
sg10
S'582.2'
p199
sg12
S'water'
p200
sg14
S'600.4'
p201
sg16
S'603.9'
p202
sg18
S'603.9'
p203
sg20
S'608.1'
p204
sa(dp205
g3
S'646.2'
p206
sg5
I0
sg6
S'706.2'
p207
sg8
S'697.8'
p208
sg10
S'651.2'
p209
sg12
S'water'
p210
sg14
S'669.4'
p211
sg16
S'672.9'
p212
sg18
S'672.9'
p213
sg20
S'677.1'
p214
sa(dp215
g3
S'647.8'
p216
sg5
I0
sg6
S'710.8'
p217
sg8
S'699.4'
p218
sg10
S'652.8'
p219
sg12
S'water'
p220
sg14
S'671.0'
p221
sg16
S'674.5'
p222
sg18
S'674.5'
p223
sg20
S'678.7'
p224
sa(dp225
g3
S'689.2'
p226
sg5
I0
sg6
S'791.2'
p227
sg8
S'740.8'
p228
sg10
S'694.2'
p229
sg12
S'water'
p230
sg14
S'712.4'
p231
sg16
S'715.9'
p232
sg18
S'715.9'
p233
sg20
S'720.1'
p234
sa(dp235
g3
S'709.9'
p236
sg5
I0
sg6
S'784.9'
p237
sg8
S'761.5'
p238
sg10
S'714.9'
p239
sg12
S'water'
p240
sg14
S'733.1'
p241
sg16
S'736.6'
p242
sg18
S'736.6'
p243
sg20
S'740.8'
p244
sa(dp245
g3
S'721.7'
p246
sg5
I0
sg6
S'800.7'
p247
sg8
S'780.4'
p248
sg10
S'726.7'
p249
sg12
S'water'
p250
sg14
S'744.9'
p251
sg16
S'748.4'
p252
sg18
S'748.4'
p253
sg20
S'752.6'
p254
sa(dp255
g3
S'744.6'
p256
sg5
I0
sg6
S'854.6'
p257
sg8
S'801.1'
p258
sg10
S'749.6'
p259
sg12
S'water'
p260
sg14
S'767.8'
p261
sg16
S'771.3'
p262
sg18
S'771.3'
p263
sg20
S'775.5'
p264
sa(dp265
g3
S'818.8'
p266
sg5
I0
sg6
S'884.8'
p267
sg8
S'870.4'
p268
sg10
S'823.8'
p269
sg12
S'water'
p270
sg14
S'842.0'
p271
sg16
S'845.5'
p272
sg18
S'845.5'
p273
sg20
S'849.6'
p274
sa(dp275
g3
S'827.5'
p276
sg5
I0
sg6
S'934.5'
p277
sg8
S'879.1'
p278
sg10
S'832.5'
p279
sg12
S'water'
p280
sg14
S'850.7'
p281
sg16
S'854.2'
p282
sg18
S'854.2'
p283
sg20
S'858.4'
p284
sa(dp285
g3
S'830.1'
p286
sg5
I0
sg6
S'922.1'
p287
sg8
S'910.0'
p288
sg10
S'835.1'
p289
sg12
S'water'
p290
sg14
S'853.3'
p291
sg16
S'860.2'
p292
sg18
S'856.8'
p293
sg20
S'868.5'
p294
sa(dp295
g3
S'855.0'
p296
sg5
I0
sg6
S'931.0'
p297
sg8
S'918.7'
p298
sg10
S'860.0'
p299
sg12
S'water'
p300
sg14
S'878.2'
p301
sg16
S'881.7'
p302
sg18
S'881.7'
p303
sg20
S'885.9'
p304
sa(dp305
g3
S'886.1'
p306
sg5
I0
sg6
S'1003.1'
p307
sg8
S'989.2'
p308
sg10
S'891.1'
p309
sg12
S'water'
p310
sg14
S'909.3'
p311
sg16
S'912.8'
p312
sg18
S'912.8'
p313
sg20
S'917.0'
p314
sa(dp315
g3
S'889.6'
p316
sg5
I0
sg6
S'988.6'
p317
sg8
S'949.6'
p318
sg10
S'894.6'
p319
sg12
S'water'
p320
sg14
S'912.9'
p321
sg16
S'916.4'
p322
sg18
S'916.4'
p323
sg20
S'920.5'
p324
sa(dp325
g3
S'898.1'
p326
sg5
I0
sg6
S'976.1'
p327
sg8
S'958.3'
p328
sg10
S'903.1'
p329
sg12
S'water'
p330
sg14
S'921.3'
p331
sg16
S'927.5'
p332
sg18
S'924.8'
p333
sg20
S'935.9'
p334
sa(dp335
g3
S'919.5'
p336
sg5
I0
sg6
S'1017.5'
p337
sg8
S'997.9'
p338
sg10
S'924.5'
p339
sg12
S'water'
p340
sg14
S'942.7'
p341
sg16
S'946.2'
p342
sg18
S'946.2'
p343
sg20
S'950.4'
p344
sa(dp345
g3
S'936.9'
p346
sg5
S'81.8'
p347
sg6
S'1138.8'
p348
sg8
S'1138.8'
p349
sg10
S'941.9'
p350
sg12
S'water'
p351
sg14
S'960.1'
p352
sg16
S'963.6'
p353
sg18
S'963.6'
p354
sg20
S'967.8'
p355
sa(dp356
g3
S'939.2'
p357
sg5
S'41.9'
p358
sg6
S'1077.1'
p359
sg8
S'1077.1'
p360
sg10
S'944.2'
p361
sg12
S'water'
p362
sg14
S'962.4'
p363
sg16
S'965.9'
p364
sg18
S'965.9'
p365
sg20
S'970.1'
p366
sa(dp367
g3
S'949.8'
p368
sg5
S'63.9'
p369
sg6
S'1116.7'
p370
sg8
S'1116.7'
p371
sg10
S'954.8'
p372
sg12
S'water'
p373
sg14
S'973.0'
p374
sg16
S'978.3'
p375
sg18
S'976.5'
p376
sg20
S'989.0'
p377
sa(dp378
g3
S'953.1'
p379
sg5
S'85.0'
p380
sg6
S'1099.2'
p381
sg8
S'1099.2'
p382
sg10
S'958.1'
p383
sg12
S'water'
p384
sg14
S'1005.1'
p385
sg16
S'987.9'
p386
sg18
S'1001.1'
p387
sg20
S'1002.8'
p388
sa(dp389
g3
S'962.7'
p390
sg5
S'4.9'
p391
sg6
S'1037.5'
p392
sg8
S'1037.5'
p393
sg10
S'967.7'
p394
sg12
S'water'
p395
sg14
S'985.9'
p396
sg16
S'993.0'
p397
sg18
S'989.4'
p398
sg20
S'1007.9'
p399
sa(dp400
g3
S'994.5'
p401
sg5
S'95.8'
p402
sg6
S'1156.3'
p403
sg8
S'1156.3'
p404
sg10
S'999.5'
p405
sg12
S'water'
p406
sg14
S'1017.7'
p407
sg16
S'1021.2'
p408
sg18
S'1021.2'
p409
sg20
S'1025.4'
p410
sa(dp411
g3
S'1018.6'
p412
sg5
S'54.7'
p413
sg6
S'1178.3'
p414
sg8
S'1178.3'
p415
sg10
S'1023.6'
p416
sg12
S'water'
p417
sg14
S'1041.8'
p418
sg16
S'1045.3'
p419
sg18
S'1045.3'
p420
sg20
S'1049.5'
p421
saF50.629999999999995
F99.95750000000001
I10
t.