((lp1
(dp2
S'Arrival'
p3
S'35.5'
p4
sS'Late'
p5
I0
sS'Depart'
p6
S'100.5'
p7
sS'POWER'
p8
S'87.1'
p9
sS'LANDING'
p10
S'40.5'
p11
sS'WATER'
p12
S'water'
p13
sS'BAGGAGE'
p14
S'58.7'
p15
sS'CATER'
p16
S'62.2'
p17
sS'CLEAN'
p18
S'62.2'
p19
sS'FUEL'
p20
S'66.4'
p21
sa(dp22
g3
S'68.3'
p23
sg5
I0
sg6
S'144.3'
p24
sg8
S'119.9'
p25
sg10
S'73.3'
p26
sg12
S'water'
p27
sg14
S'91.5'
p28
sg16
S'95.0'
p29
sg18
S'95.0'
p30
sg20
S'99.2'
p31
sa(dp32
g3
S'113.5'
p33
sg5
I0
sg6
S'202.5'
p34
sg8
S'165.1'
p35
sg10
S'118.5'
p36
sg12
S'water'
p37
sg14
S'136.7'
p38
sg16
S'140.2'
p39
sg18
S'140.2'
p40
sg20
S'144.4'
p41
sa(dp42
g3
S'118.4'
p43
sg5
S'54.0'
p44
sg6
S'240.4'
p45
sg8
S'240.4'
p46
sg10
S'123.4'
p47
sg12
S'water'
p48
sg14
S'170.4'
p49
sg16
S'152.4'
p50
sg18
S'166.4'
p51
sg20
S'165.4'
p52
sa(dp53
g3
S'140.8'
p54
sg5
S'16.5'
p55
sg6
S'244.3'
p56
sg8
S'244.3'
p57
sg10
S'145.8'
p58
sg12
S'water'
p59
sg14
S'164.0'
p60
sg16
S'167.5'
p61
sg18
S'167.5'
p62
sg20
S'171.7'
p63
sa(dp64
g3
S'151.0'
p65
sg5
I0
sg6
S'211.0'
p66
sg8
S'204.7'
p67
sg10
S'156.0'
p68
sg12
S'water'
p69
sg14
S'175.2'
p70
sg16
S'177.7'
p71
sg18
S'177.7'
p72
sg20
S'184.3'
p73
sa(dp74
g3
S'191.3'
p75
sg5
S'15.2'
p76
sg6
S'306.4'
p77
sg8
S'306.4'
p78
sg10
S'196.3'
p79
sg12
S'water'
p80
sg14
S'227.3'
p81
sg16
S'221.3'
p82
sg18
S'221.3'
p83
sg20
S'227.3'
p84
sa(dp85
g3
S'214.3'
p86
sg5
I0
sg6
S'313.3'
p87
sg8
S'283.9'
p88
sg10
S'219.3'
p89
sg12
S'water'
p90
sg14
S'237.5'
p91
sg16
S'241.0'
p92
sg18
S'241.0'
p93
sg20
S'245.2'
p94
sa(dp95
g3
S'291.7'
p96
sg5
I0
sg6
S'376.7'
p97
sg8
S'343.3'
p98
sg10
S'296.7'
p99
sg12
S'water'
p100
sg14
S'314.9'
p101
sg16
S'318.4'
p102
sg18
S'318.4'
p103
sg20
S'322.6'
p104
sa(dp105
g3
S'329.9'
p106
sg5
I0
sg6
S'438.9'
p107
sg8
S'381.5'
p108
sg10
S'334.9'
p109
sg12
S'water'
p110
sg14
S'353.1'
p111
sg16
S'356.6'
p112
sg18
S'356.6'
p113
sg20
S'360.8'
p114
sa(dp115
g3
S'337.3'
p116
sg5
I0
sg6
S'416.3'
p117
sg8
S'388.9'
p118
sg10
S'342.3'
p119
sg12
S'water'
p120
sg14
S'360.5'
p121
sg16
S'364.0'
p122
sg18
S'364.0'
p123
sg20
S'368.2'
p124
sa(dp125
g3
S'414.3'
p126
sg5
I0
sg6
S'491.3'
p127
sg8
S'465.9'
p128
sg10
S'419.3'
p129
sg12
S'water'
p130
sg14
S'437.5'
p131
sg16
S'441.0'
p132
sg18
S'441.0'
p133
sg20
S'445.2'
p134
sa(dp135
g3
S'429.6'
p136
sg5
I0
sg6
S'530.6'
p137
sg8
S'481.2'
p138
sg10
S'434.6'
p139
sg12
S'water'
p140
sg14
S'452.8'
p141
sg16
S'456.3'
p142
sg18
S'456.3'
p143
sg20
S'460.5'
p144
sa(dp145
g3
S'448.9'
p146
sg5
S'17.8'
p147
sg6
S'584.7'
p148
sg8
S'584.7'
p149
sg10
S'453.9'
p150
sg12
S'water'
p151
sg14
S'472.1'
p152
sg16
S'475.6'
p153
sg18
S'475.6'
p154
sg20
S'479.8'
p155
sa(dp156
g3
S'449.4'
p157
sg5
I0
sg6
S'513.4'
p158
sg8
S'505.5'
p159
sg10
S'454.4'
p160
sg12
S'water'
p161
sg14
S'472.6'
p162
sg16
S'476.1'
p163
sg18
S'476.1'
p164
sg20
S'480.3'
p165
sa(dp166
g3
S'461.3'
p167
sg5
I0
sg6
S'551.3'
p168
sg8
S'520.9'
p169
sg10
S'466.3'
p170
sg12
S'water'
p171
sg14
S'484.5'
p172
sg16
S'490.3'
p173
sg18
S'488.0'
p174
sg20
S'498.7'
p175
sa(dp176
g3
S'482.6'
p177
sg5
S'38.6'
p178
sg6
S'624.3'
p179
sg8
S'624.3'
p180
sg10
S'487.6'
p181
sg12
S'water'
p182
sg14
S'505.8'
p183
sg16
S'509.3'
p184
sg18
S'509.3'
p185
sg20
S'513.5'
p186
sa(dp187
g3
S'486.6'
p188
sg5
I0
sg6
S'565.6'
p189
sg8
S'560.5'
p190
sg10
S'491.6'
p191
sg12
S'water'
p192
sg14
S'509.8'
p193
sg16
S'513.3'
p194
sg18
S'513.3'
p195
sg20
S'517.6'
p196
sa(dp197
g3
S'492.7'
p198
sg5
I0
sg6
S'562.7'
p199
sg8
S'545.1'
p200
sg10
S'497.7'
p201
sg12
S'water'
p202
sg14
S'517.0'
p203
sg16
S'524.0'
p204
sg18
S'519.4'
p205
sg20
S'532.4'
p206
sa(dp207
g3
S'522.1'
p208
sg5
S'18.0'
p209
sg6
S'600.1'
p210
sg8
S'600.1'
p211
sg10
S'527.1'
p212
sg12
S'water'
p213
sg14
S'545.3'
p214
sg16
S'548.8'
p215
sg18
S'548.8'
p216
sg20
S'553.0'
p217
sa(dp218
g3
S'558.5'
p219
sg5
S'16.1'
p220
sg6
S'639.7'
p221
sg8
S'639.7'
p222
sg10
S'563.5'
p223
sg12
S'water'
p224
sg14
S'581.7'
p225
sg16
S'585.2'
p226
sg18
S'585.2'
p227
sg20
S'589.4'
p228
sa(dp229
g3
S'563.1'
p230
sg5
S'33.2'
p231
sg6
S'679.3'
p232
sg8
S'679.3'
p233
sg10
S'568.1'
p234
sg12
S'water'
p235
sg14
S'586.3'
p236
sg16
S'589.8'
p237
sg18
S'589.8'
p238
sg20
S'594.0'
p239
sa(dp240
g3
S'569.6'
p241
sg5
S'22.2'
p242
sg6
S'663.9'
p243
sg8
S'663.9'
p244
sg10
S'574.6'
p245
sg12
S'water'
p246
sg14
S'592.9'
p247
sg16
S'599.9'
p248
sg18
S'596.4'
p249
sg20
S'608.3'
p250
sa(dp251
g3
S'590.2'
p252
sg5
S'24.3'
p253
sg6
S'703.5'
p254
sg8
S'703.5'
p255
sg10
S'595.2'
p256
sg12
S'water'
p257
sg14
S'613.4'
p258
sg16
S'616.9'
p259
sg18
S'616.9'
p260
sg20
S'621.1'
p261
sa(dp262
g3
S'630.3'
p263
sg5
I0
sg6
S'729.3'
p264
sg8
S'718.9'
p265
sg10
S'635.3'
p266
sg12
S'water'
p267
sg14
S'653.5'
p268
sg16
S'657.0'
p269
sg18
S'657.0'
p270
sg20
S'661.2'
p271
sa(dp272
g3
S'659.2'
p273
sg5
I0
sg6
S'757.2'
p274
sg8
S'743.1'
p275
sg10
S'664.2'
p276
sg12
S'water'
p277
sg14
S'682.4'
p278
sg16
S'685.9'
p279
sg18
S'685.9'
p280
sg20
S'690.1'
p281
sa(dp282
g3
S'684.3'
p283
sg5
I0
sg6
S'773.3'
p284
sg8
S'758.5'
p285
sg10
S'689.3'
p286
sg12
S'water'
p287
sg14
S'707.5'
p288
sg16
S'711.0'
p289
sg18
S'711.0'
p290
sg20
S'715.2'
p291
sa(dp292
g3
S'735.4'
p293
sg5
I0
sg6
S'811.4'
p294
sg8
S'787.0'
p295
sg10
S'740.4'
p296
sg12
S'water'
p297
sg14
S'758.6'
p298
sg16
S'762.1'
p299
sg18
S'762.1'
p300
sg20
S'766.2'
p301
sa(dp302
g3
S'766.9'
p303
sg5
I0
sg6
S'879.9'
p304
sg8
S'818.5'
p305
sg10
S'771.9'
p306
sg12
S'water'
p307
sg14
S'790.1'
p308
sg16
S'793.6'
p309
sg18
S'793.6'
p310
sg20
S'797.8'
p311
sa(dp312
g3
S'784.0'
p313
sg5
I0
sg6
S'872.0'
p314
sg8
S'835.6'
p315
sg10
S'789.0'
p316
sg12
S'water'
p317
sg14
S'807.2'
p318
sg16
S'810.7'
p319
sg18
S'810.7'
p320
sg20
S'814.9'
p321
sa(dp322
g3
S'793.0'
p323
sg5
I0
sg6
S'865.0'
p324
sg8
S'858.1'
p325
sg10
S'798.0'
p326
sg12
S'water'
p327
sg14
S'816.2'
p328
sg16
S'819.7'
p329
sg18
S'819.7'
p330
sg20
S'823.9'
p331
sa(dp332
g3
S'828.0'
p333
sg5
I0
sg6
S'936.0'
p334
sg8
S'879.6'
p335
sg10
S'833.0'
p336
sg12
S'water'
p337
sg14
S'851.2'
p338
sg16
S'854.8'
p339
sg18
S'854.8'
p340
sg20
S'858.9'
p341
sa(dp342
g3
S'891.4'
p343
sg5
I0
sg6
S'965.4'
p344
sg8
S'943.0'
p345
sg10
S'896.4'
p346
sg12
S'water'
p347
sg14
S'914.6'
p348
sg16
S'918.1'
p349
sg18
S'918.1'
p350
sg20
S'922.3'
p351
sa(dp352
g3
S'908.6'
p353
sg5
I0
sg6
S'976.6'
p354
sg8
S'960.2'
p355
sg10
S'913.6'
p356
sg12
S'water'
p357
sg14
S'931.9'
p358
sg16
S'935.4'
p359
sg18
S'935.4'
p360
sg20
S'939.5'
p361
sa(dp362
g3
S'908.7'
p363
sg5
S'64.4'
p364
sg6
S'1053.0'
p365
sg8
S'1053.0'
p366
sg10
S'913.7'
p367
sg12
S'water'
p368
sg14
S'960.7'
p369
sg16
S'942.7'
p370
sg18
S'956.7'
p371
sg20
S'957.3'
p372
sa(dp373
g3
S'927.2'
p374
sg5
I0
sg6
S'1016.2'
p375
sg8
S'999.9'
p376
sg10
S'932.2'
p377
sg12
S'water'
p378
sg14
S'950.4'
p379
sg16
S'953.9'
p380
sg18
S'953.9'
p381
sg20
S'958.4'
p382
sa(dp383
g3
S'937.2'
p384
sg5
S'11.2'
p385
sg6
S'1039.5'
p386
sg8
S'1039.5'
p387
sg10
S'942.2'
p388
sg12
S'water'
p389
sg14
S'961.6'
p390
sg16
S'963.9'
p391
sg18
S'963.9'
p392
sg20
S'976.2'
p393
sa(dp394
g3
S'1037.5'
p395
sg5
I0
sg6
S'1117.5'
p396
sg8
S'1089.1'
p397
sg10
S'1042.5'
p398
sg12
S'water'
p399
sg14
S'1060.7'
p400
sg16
S'1064.2'
p401
sg18
S'1064.2'
p402
sg20
S'1068.4'
p403
sa(dp404
g3
S'1043.2'
p405
sg5
I0
sg6
S'1103.2'
p406
sg8
S'1094.8'
p407
sg10
S'1048.2'
p408
sg12
S'water'
p409
sg14
S'1066.4'
p410
sg16
S'1069.9'
p411
sg18
S'1069.9'
p412
sg20
S'1074.1'
p413
sa(dp414
g3
S'1049.3'
p415
sg5
I0
sg6
S'1136.3'
p416
sg8
S'1128.7'
p417
sg10
S'1054.3'
p418
sg12
S'water'
p419
sg14
S'1072.5'
p420
sg16
S'1078.9'
p421
sg18
S'1076.0'
p422
sg20
S'1087.3'
p423
saF27.624999999999996
F92.292500000000018
I12
t.