((lp1
(dp2
S'Arrival'
p3
S'53.2'
p4
sS'Late'
p5
I0
sS'Depart'
p6
S'120.2'
p7
sS'POWER'
p8
S'104.8'
p9
sS'LANDING'
p10
S'58.2'
p11
sS'WATER'
p12
S'water'
p13
sS'BAGGAGE'
p14
S'76.4'
p15
sS'CATER'
p16
S'79.9'
p17
sS'CLEAN'
p18
S'79.9'
p19
sS'FUEL'
p20
S'84.1'
p21
sa(dp22
g3
S'73.3'
p23
sg5
I0
sg6
S'159.3'
p24
sg8
S'124.9'
p25
sg10
S'78.3'
p26
sg12
S'water'
p27
sg14
S'96.5'
p28
sg16
S'100.0'
p29
sg18
S'100.0'
p30
sg20
S'104.2'
p31
sa(dp32
g3
S'74.5'
p33
sg5
I0
sg6
S'192.5'
p34
sg8
S'126.1'
p35
sg10
S'79.5'
p36
sg12
S'water'
p37
sg14
S'97.7'
p38
sg16
S'101.2'
p39
sg18
S'101.2'
p40
sg20
S'105.4'
p41
sa(dp42
g3
S'94.2'
p43
sg5
I0
sg6
S'183.2'
p44
sg8
S'145.8'
p45
sg10
S'99.2'
p46
sg12
S'water'
p47
sg14
S'117.4'
p48
sg16
S'120.9'
p49
sg18
S'120.9'
p50
sg20
S'125.1'
p51
sa(dp52
g3
S'95.5'
p53
sg5
I0
sg6
S'209.5'
p54
sg8
S'164.5'
p55
sg10
S'100.5'
p56
sg12
S'water'
p57
sg14
S'118.7'
p58
sg16
S'122.2'
p59
sg18
S'122.2'
p60
sg20
S'126.4'
p61
sa(dp62
g3
S'106.9'
p63
sg5
I0
sg6
S'223.9'
p64
sg8
S'165.7'
p65
sg10
S'111.9'
p66
sg12
S'water'
p67
sg14
S'130.1'
p68
sg16
S'133.6'
p69
sg18
S'133.6'
p70
sg20
S'137.8'
p71
sa(dp72
g3
S'122.6'
p73
sg5
S'38.9'
p74
sg6
S'274.5'
p75
sg8
S'274.5'
p76
sg10
S'127.6'
p77
sg12
S'water'
p78
sg14
S'174.6'
p79
sg16
S'156.6'
p80
sg18
S'170.6'
p81
sg20
S'169.6'
p82
sa(dp83
g3
S'128.6'
p84
sg5
I0
sg6
S'217.6'
p85
sg8
S'185.4'
p86
sg10
S'133.6'
p87
sg12
S'water'
p88
sg14
S'151.8'
p89
sg16
S'155.3'
p90
sg18
S'155.3'
p91
sg20
S'159.5'
p92
sa(dp93
g3
S'159.3'
p94
sg5
I0
sg6
S'273.3'
p95
sg8
S'237.3'
p96
sg10
S'164.3'
p97
sg12
S'water'
p98
sg14
S'195.3'
p99
sg16
S'189.3'
p100
sg18
S'189.3'
p101
sg20
S'195.3'
p102
sa(dp103
g3
S'208.9'
p104
sg5
I0
sg6
S'328.9'
p105
sg8
S'260.5'
p106
sg10
S'213.9'
p107
sg12
S'water'
p108
sg14
S'232.1'
p109
sg16
S'235.6'
p110
sg18
S'235.6'
p111
sg20
S'239.8'
p112
sa(dp113
g3
S'215.8'
p114
sg5
I0
sg6
S'318.8'
p115
sg8
S'276.9'
p116
sg10
S'220.8'
p117
sg12
S'water'
p118
sg14
S'239.0'
p119
sg16
S'242.5'
p120
sg18
S'242.5'
p121
sg20
S'246.7'
p122
sa(dp123
g3
S'226.1'
p124
sg5
I0
sg6
S'327.1'
p125
sg8
S'300.1'
p126
sg10
S'231.1'
p127
sg12
S'water'
p128
sg14
S'249.3'
p129
sg16
S'252.8'
p130
sg18
S'252.8'
p131
sg20
S'257.0'
p132
sa(dp133
g3
S'303.1'
p134
sg5
I0
sg6
S'422.1'
p135
sg8
S'354.7'
p136
sg10
S'308.1'
p137
sg12
S'water'
p138
sg14
S'326.3'
p139
sg16
S'329.8'
p140
sg18
S'329.8'
p141
sg20
S'334.0'
p142
sa(dp143
g3
S'306.2'
p144
sg5
I0
sg6
S'405.2'
p145
sg8
S'357.8'
p146
sg10
S'311.2'
p147
sg12
S'water'
p148
sg14
S'329.4'
p149
sg16
S'332.9'
p150
sg18
S'332.9'
p151
sg20
S'337.1'
p152
sa(dp153
g3
S'308.1'
p154
sg5
I0
sg6
S'416.1'
p155
sg8
S'359.7'
p156
sg10
S'313.1'
p157
sg12
S'water'
p158
sg14
S'331.3'
p159
sg16
S'334.8'
p160
sg18
S'334.8'
p161
sg20
S'339.0'
p162
sa(dp163
g3
S'316.1'
p164
sg5
I0
sg6
S'394.3'
p165
sg8
S'394.3'
p166
sg10
S'321.1'
p167
sg12
S'water'
p168
sg14
S'339.3'
p169
sg16
S'344.5'
p170
sg18
S'342.8'
p171
sg20
S'352.9'
p172
sa(dp173
g3
S'402.7'
p174
sg5
I0
sg6
S'485.7'
p175
sg8
S'454.3'
p176
sg10
S'407.7'
p177
sg12
S'water'
p178
sg14
S'425.9'
p179
sg16
S'429.4'
p180
sg18
S'429.4'
p181
sg20
S'433.6'
p182
sa(dp183
g3
S'413.0'
p184
sg5
I0
sg6
S'495.0'
p185
sg8
S'464.6'
p186
sg10
S'418.0'
p187
sg12
S'water'
p188
sg14
S'436.2'
p189
sg16
S'439.7'
p190
sg18
S'439.7'
p191
sg20
S'443.9'
p192
sa(dp193
g3
S'506.1'
p194
sg5
I0
sg6
S'588.1'
p195
sg8
S'557.7'
p196
sg10
S'511.1'
p197
sg12
S'water'
p198
sg14
S'529.3'
p199
sg16
S'532.8'
p200
sg18
S'532.8'
p201
sg20
S'537.0'
p202
sa(dp203
g3
S'548.3'
p204
sg5
I0
sg6
S'609.3'
p205
sg8
S'599.9'
p206
sg10
S'553.3'
p207
sg12
S'water'
p208
sg14
S'571.5'
p209
sg16
S'575.0'
p210
sg18
S'575.0'
p211
sg20
S'579.2'
p212
sa(dp213
g3
S'593.8'
p214
sg5
I0
sg6
S'686.8'
p215
sg8
S'671.8'
p216
sg10
S'598.8'
p217
sg12
S'water'
p218
sg14
S'629.8'
p219
sg16
S'623.8'
p220
sg18
S'623.8'
p221
sg20
S'629.8'
p222
sa(dp223
g3
S'625.2'
p224
sg5
I0
sg6
S'733.2'
p225
sg8
S'676.8'
p226
sg10
S'630.2'
p227
sg12
S'water'
p228
sg14
S'648.4'
p229
sg16
S'651.9'
p230
sg18
S'651.9'
p231
sg20
S'656.1'
p232
sa(dp233
g3
S'643.9'
p234
sg5
I0
sg6
S'716.9'
p235
sg8
S'695.5'
p236
sg10
S'648.9'
p237
sg12
S'water'
p238
sg14
S'667.1'
p239
sg16
S'670.6'
p240
sg18
S'670.6'
p241
sg20
S'674.8'
p242
sa(dp243
g3
S'650.9'
p244
sg5
I0
sg6
S'737.9'
p245
sg8
S'711.4'
p246
sg10
S'655.9'
p247
sg12
S'water'
p248
sg14
S'674.1'
p249
sg16
S'677.6'
p250
sg18
S'677.6'
p251
sg20
S'681.8'
p252
sa(dp253
g3
S'671.5'
p254
sg5
I0
sg6
S'758.5'
p255
sg8
S'723.1'
p256
sg10
S'676.5'
p257
sg12
S'water'
p258
sg14
S'694.7'
p259
sg16
S'698.2'
p260
sg18
S'698.2'
p261
sg20
S'702.4'
p262
sa(dp263
g3
S'693.3'
p264
sg5
I0
sg6
S'760.3'
p265
sg8
S'744.9'
p266
sg10
S'698.3'
p267
sg12
S'water'
p268
sg14
S'716.5'
p269
sg16
S'720.0'
p270
sg18
S'720.0'
p271
sg20
S'724.2'
p272
sa(dp273
g3
S'731.1'
p274
sg5
I0
sg6
S'822.1'
p275
sg8
S'809.1'
p276
sg10
S'736.1'
p277
sg12
S'water'
p278
sg14
S'767.1'
p279
sg16
S'761.1'
p280
sg18
S'761.1'
p281
sg20
S'767.1'
p282
sa(dp283
g3
S'751.4'
p284
sg5
I0
sg6
S'822.4'
p285
sg8
S'803.0'
p286
sg10
S'756.4'
p287
sg12
S'water'
p288
sg14
S'774.6'
p289
sg16
S'778.1'
p290
sg18
S'778.1'
p291
sg20
S'782.3'
p292
sa(dp293
g3
S'794.6'
p294
sg5
I0
sg6
S'862.6'
p295
sg8
S'846.2'
p296
sg10
S'799.6'
p297
sg12
S'water'
p298
sg14
S'817.8'
p299
sg16
S'821.3'
p300
sg18
S'821.3'
p301
sg20
S'825.5'
p302
sa(dp303
g3
S'843.4'
p304
sg5
I0
sg6
S'941.4'
p305
sg8
S'895.0'
p306
sg10
S'848.4'
p307
sg12
S'water'
p308
sg14
S'866.6'
p309
sg16
S'870.1'
p310
sg18
S'870.1'
p311
sg20
S'874.3'
p312
sa(dp313
g3
S'870.6'
p314
sg5
I0
sg6
S'971.6'
p315
sg8
S'922.2'
p316
sg10
S'875.6'
p317
sg12
S'water'
p318
sg14
S'893.8'
p319
sg16
S'897.3'
p320
sg18
S'897.3'
p321
sg20
S'901.5'
p322
sa(dp323
g3
S'924.0'
p324
sg5
I0
sg6
S'1001.0'
p325
sg8
S'975.6'
p326
sg10
S'929.0'
p327
sg12
S'water'
p328
sg14
S'947.2'
p329
sg16
S'950.7'
p330
sg18
S'950.7'
p331
sg20
S'954.9'
p332
sa(dp333
g3
S'928.0'
p334
sg5
I0
sg6
S'1030.0'
p335
sg8
S'979.6'
p336
sg10
S'933.0'
p337
sg12
S'water'
p338
sg14
S'951.2'
p339
sg16
S'954.7'
p340
sg18
S'954.7'
p341
sg20
S'958.9'
p342
sa(dp343
g3
S'929.6'
p344
sg5
I0
sg6
S'999.6'
p345
sg8
S'981.2'
p346
sg10
S'934.6'
p347
sg12
S'water'
p348
sg14
S'952.8'
p349
sg16
S'956.3'
p350
sg18
S'956.3'
p351
sg20
S'960.5'
p352
sa(dp353
g3
S'948.6'
p354
sg5
I0
sg6
S'1065.7'
p355
sg8
S'1015.2'
p356
sg10
S'953.6'
p357
sg12
S'water'
p358
sg14
S'971.9'
p359
sg16
S'975.4'
p360
sg18
S'975.4'
p361
sg20
S'979.5'
p362
sa(dp363
g3
S'971.8'
p364
sg5
I0
sg6
S'1073.8'
p365
sg8
S'1023.4'
p366
sg10
S'976.8'
p367
sg12
S'water'
p368
sg14
S'995.0'
p369
sg16
S'998.5'
p370
sg18
S'998.5'
p371
sg20
S'1002.7'
p372
sa(dp373
g3
S'1004.4'
p374
sg5
I0
sg6
S'1089.4'
p375
sg8
S'1056.0'
p376
sg10
S'1009.4'
p377
sg12
S'water'
p378
sg14
S'1027.6'
p379
sg16
S'1031.1'
p380
sg18
S'1031.1'
p381
sg20
S'1035.3'
p382
sa(dp383
g3
S'1013.7'
p384
sg5
I0
sg6
S'1107.7'
p385
sg8
S'1065.3'
p386
sg10
S'1018.7'
p387
sg12
S'water'
p388
sg14
S'1036.9'
p389
sg16
S'1040.4'
p390
sg18
S'1040.4'
p391
sg20
S'1044.6'
p392
sa(dp393
g3
S'1033.2'
p394
sg5
I0
sg6
S'1118.2'
p395
sg8
S'1084.8'
p396
sg10
S'1038.2'
p397
sg12
S'water'
p398
sg14
S'1056.4'
p399
sg16
S'1059.9'
p400
sg18
S'1059.9'
p401
sg20
S'1064.1'
p402
sa(dp403
g3
S'1061.9'
p404
sg5
I0
sg6
S'1152.9'
p405
sg8
S'1113.5'
p406
sg10
S'1066.9'
p407
sg12
S'water'
p408
sg14
S'1085.1'
p409
sg16
S'1088.6'
p410
sg18
S'1088.6'
p411
sg20
S'1092.8'
p412
saF93.72999999999999
F38.899999999999999
I1
t.