((lp1
(dp2
S'Arrival'
p3
S'2.6'
p4
sS'Late'
p5
I0
sS'Depart'
p6
S'113.6'
p7
sS'POWER'
p8
S'58.6'
p9
sS'Bag_time'
p10
S'16.0'
p11
sS'WATER'
p12
S'water'
p13
sS'BAGGAGE'
p14
S'30.6'
p15
sS'CATER'
p16
S'36.6'
p17
sS'LANDING'
p18
S'7.6'
p19
sS'CLEAN'
p20
S'32.6'
p21
sS'FUEL'
p22
S'38.6'
p23
sa(dp24
g3
S'32.7'
p25
sg5
I0
sg6
S'130.7'
p26
sg8
S'102.6'
p27
sg10
S'16.0'
p28
sg12
S'water'
p29
sg14
S'60.7'
p30
sg16
S'66.7'
p31
sg18
S'37.7'
p32
sg20
S'62.7'
p33
sg22
S'68.7'
p34
sa(dp35
g3
S'57.5'
p36
sg5
I0
sg6
S'163.5'
p37
sg8
S'146.6'
p38
sg10
S'16.0'
p39
sg12
S'water'
p40
sg14
S'85.5'
p41
sg16
S'91.5'
p42
sg18
S'62.5'
p43
sg20
S'87.5'
p44
sg22
S'93.5'
p45
sa(dp46
g3
S'72.9'
p47
sg5
S'88.6'
p48
sg6
S'278.6'
p49
sg8
S'278.6'
p50
sg10
S'16.6'
p51
sg12
S'water'
p52
sg14
S'101.5'
p53
sg16
S'157.5'
p54
sg18
S'77.9'
p55
sg20
S'105.5'
p56
sg22
S'165.5'
p57
sa(dp58
g3
S'76.7'
p59
sg5
S'47.9'
p60
sg6
S'234.6'
p61
sg8
S'234.6'
p62
sg10
S'44.8'
p63
sg12
S'water'
p64
sg14
S'133.5'
p65
sg16
S'135.5'
p66
sg18
S'81.7'
p67
sg20
S'141.5'
p68
sg22
S'141.5'
p69
sa(dp70
g3
S'79.5'
p71
sg5
S'20.1'
p72
sg6
S'190.6'
p73
sg8
S'190.6'
p74
sg18
S'84.5'
p75
sg12
S'water'
p76
sg14
S'117.5'
p77
sg16
S'113.5'
p78
sg10
S'26.0'
p79
sg20
S'123.5'
p80
sg22
S'117.5'
p81
sa(dp82
g3
S'80.9'
p83
sg5
S'164.7'
p84
sg6
S'366.6'
p85
sg8
S'366.6'
p86
sg10
S'72.7'
p87
sg12
S'water'
p88
sg14
S'165.5'
p89
sg16
S'201.5'
p90
sg18
S'85.9'
p91
sg20
S'177.5'
p92
sg22
S'213.5'
p93
sa(dp94
g3
S'97.0'
p95
sg5
S'207.6'
p96
sg6
S'410.6'
p97
sg8
S'410.6'
p98
sg10
S'72.6'
p99
sg12
S'water'
p100
sg14
S'181.5'
p101
sg16
S'223.5'
p102
sg18
S'102.0'
p103
sg20
S'195.5'
p104
sg22
S'237.5'
p105
sa(dp106
g3
S'108.2'
p107
sg5
S'123.4'
p108
sg6
S'322.6'
p109
sg8
S'322.6'
p110
sg10
S'29.3'
p111
sg12
S'water'
p112
sg14
S'149.5'
p113
sg16
S'179.5'
p114
sg18
S'113.2'
p115
sg20
S'159.5'
p116
sg22
S'189.5'
p117
sa(dp118
g3
S'129.4'
p119
sg5
S'280.2'
p120
sg6
S'508.6'
p121
sg8
S'508.6'
p122
sg10
S'84.2'
p123
sg12
S'water'
p124
sg14
S'225.5'
p125
sg16
S'282.5'
p126
sg18
S'134.4'
p127
sg20
S'249.5'
p128
sg22
S'296.5'
p129
sa(dp130
g3
S'154.3'
p131
sg5
S'281.2'
p132
sg6
S'552.6'
p133
sg8
S'552.6'
p134
sg10
S'75.2'
p135
sg12
S'water'
p136
sg14
S'241.5'
p137
sg16
S'304.5'
p138
sg18
S'159.3'
p139
sg20
S'267.5'
p140
sg22
S'320.5'
p141
sa(dp142
g3
S'155.6'
p143
sg5
S'239.0'
p144
sg6
S'464.6'
p145
sg8
S'464.6'
p146
sg10
S'42.0'
p147
sg12
S'water'
p148
sg14
S'209.5'
p149
sg16
S'260.5'
p150
sg18
S'160.6'
p151
sg20
S'231.5'
p152
sg22
S'272.5'
p153
sa(dp154
g3
S'199.9'
p155
sg5
S'305.6'
p156
sg6
S'596.6'
p157
sg8
S'596.6'
p158
sg10
S'45.6'
p159
sg12
S'water'
p160
sg14
S'257.5'
p161
sg16
S'326.5'
p162
sg18
S'204.9'
p163
sg20
S'285.5'
p164
sg22
S'344.5'
p165
sa(dp166
g3
S'211.2'
p167
sg5
S'319.4'
p168
sg6
S'640.6'
p169
sg8
S'640.6'
p170
sg10
S'50.3'
p171
sg12
S'water'
p172
sg14
S'273.5'
p173
sg16
S'348.5'
p174
sg18
S'216.2'
p175
sg20
S'303.5'
p176
sg22
S'368.5'
p177
sa(dp178
g3
S'226.1'
p179
sg5
S'356.5'
p180
sg6
S'684.6'
p181
sg8
S'684.6'
p182
sg10
S'51.5'
p183
sg12
S'water'
p184
sg14
S'289.5'
p185
sg16
S'370.5'
p186
sg18
S'231.1'
p187
sg20
S'321.5'
p188
sg22
S'392.5'
p189
sa(dp190
g3
S'226.7'
p191
sg5
S'382.0'
p192
sg6
S'728.6'
p193
sg8
S'728.6'
p194
sg10
S'57.0'
p195
sg12
S'water'
p196
sg14
S'305.5'
p197
sg16
S'392.5'
p198
sg18
S'241.6'
p199
sg20
S'339.5'
p200
sg22
S'416.5'
p201
sa(dp202
g3
S'318.6'
p203
sg5
S'385.0'
p204
sg6
S'816.6'
p205
sg8
S'816.6'
p206
sg10
S'16.0'
p207
sg12
S'water'
p208
sg14
S'346.6'
p209
sg16
S'436.5'
p210
sg18
S'323.6'
p211
sg20
S'375.5'
p212
sg22
S'464.5'
p213
sa(dp214
g3
S'325.6'
p215
sg5
S'357.9'
p216
sg6
S'772.6'
p217
sg8
S'772.6'
p218
sg10
S'24.9'
p219
sg12
S'water'
p220
sg14
S'362.6'
p221
sg16
S'414.5'
p222
sg18
S'330.6'
p223
sg20
S'357.5'
p224
sg22
S'440.5'
p225
sa(dp226
g3
S'369.1'
p227
sg5
S'412.5'
p228
sg6
S'860.6'
p229
sg8
S'860.6'
p230
sg10
S'16.0'
p231
sg12
S'water'
p232
sg14
S'397.1'
p233
sg16
S'458.5'
p234
sg18
S'374.1'
p235
sg20
S'399.1'
p236
sg22
S'488.5'
p237
sa(dp238
g3
S'410.0'
p239
sg5
S'425.0'
p240
sg6
S'904.6'
p241
sg8
S'904.6'
p242
sg10
S'16.0'
p243
sg12
S'water'
p244
sg14
S'440.6'
p245
sg16
S'480.5'
p246
sg18
S'417.6'
p247
sg20
S'442.6'
p248
sg22
S'512.5'
p249
sa(dp250
g3
S'466.7'
p251
sg5
S'378.9'
p252
sg6
S'958.6'
p253
sg8
S'958.6'
p254
sg10
S'28.0'
p255
sg12
S'water'
p256
sg14
S'506.7'
p257
sg16
S'517.5'
p258
sg18
S'471.7'
p259
sg20
S'514.7'
p260
sg22
S'547.5'
p261
sa(dp262
g3
S'503.0'
p263
sg5
S'402.0'
p264
sg6
S'1002.6'
p265
sg8
S'1002.6'
p266
sg10
S'16.0'
p267
sg12
S'water'
p268
sg14
S'538.6'
p269
sg16
S'544.6'
p270
sg18
S'515.6'
p271
sg20
S'540.6'
p272
sg22
S'571.5'
p273
sa(dp274
g3
S'513.6'
p275
sg5
S'372.6'
p276
sg6
S'1042.2'
p277
sg8
S'1042.2'
p278
sg10
S'11.2'
p279
sg12
S'water'
p280
sg14
S'577.8'
p281
sg16
S'584.1'
p282
sg18
S'559.6'
p283
sg20
S'581.3'
p284
sg22
S'590.4'
p285
sa(dp286
g3
S'545.2'
p287
sg5
S'416.6'
p288
sg6
S'1086.2'
p289
sg8
S'1086.2'
p290
sg10
S'16.0'
p291
sg12
S'water'
p292
sg14
S'626.6'
p293
sg16
S'632.6'
p294
sg18
S'603.6'
p295
sg20
S'628.6'
p296
sg22
S'634.6'
p297
sa(dp298
g3
S'589.5'
p299
sg5
S'378.6'
p300
sg6
S'1130.2'
p301
sg8
S'1130.2'
p302
sg10
S'16.0'
p303
sg12
S'water'
p304
sg14
S'670.6'
p305
sg16
S'676.6'
p306
sg18
S'647.6'
p307
sg20
S'672.6'
p308
sg22
S'678.6'
p309
sa(dp310
g3
S'612.3'
p311
sg5
S'365.6'
p312
sg6
S'1174.2'
p313
sg8
S'1174.2'
p314
sg10
S'16.0'
p315
sg12
S'water'
p316
sg14
S'714.6'
p317
sg16
S'720.6'
p318
sg18
S'691.6'
p319
sg20
S'716.6'
p320
sg22
S'722.6'
p321
sa(dp322
g3
S'614.8'
p323
sg5
S'407.6'
p324
sg6
S'1218.2'
p325
sg8
S'1218.2'
p326
sg10
S'16.0'
p327
sg12
S'water'
p328
sg14
S'758.6'
p329
sg16
S'764.6'
p330
sg18
S'735.6'
p331
sg20
S'760.6'
p332
sg22
S'766.6'
p333
sa(dp334
g3
S'662.6'
p335
sg5
S'368.6'
p336
sg6
S'1262.2'
p337
sg8
S'1262.2'
p338
sg10
S'16.0'
p339
sg12
S'water'
p340
sg14
S'802.6'
p341
sg16
S'808.6'
p342
sg18
S'779.6'
p343
sg20
S'804.6'
p344
sg22
S'810.6'
p345
sa(dp346
g3
S'727.5'
p347
sg5
S'371.6'
p348
sg6
S'1306.2'
p349
sg8
S'1306.2'
p350
sg10
S'16.0'
p351
sg12
S'water'
p352
sg14
S'846.6'
p353
sg16
S'852.6'
p354
sg18
S'823.6'
p355
sg20
S'848.6'
p356
sg22
S'854.6'
p357
sa(dp358
g3
S'827.7'
p359
sg5
S'403.6'
p360
sg6
S'1350.2'
p361
sg8
S'1350.2'
p362
sg10
S'16.0'
p363
sg12
S'water'
p364
sg14
S'890.6'
p365
sg16
S'896.6'
p366
sg18
S'867.6'
p367
sg20
S'892.6'
p368
sg22
S'898.6'
p369
sa(dp370
g3
S'844.1'
p371
sg5
S'367.6'
p372
sg6
S'1394.2'
p373
sg8
S'1394.2'
p374
sg10
S'16.0'
p375
sg12
S'water'
p376
sg14
S'934.6'
p377
sg16
S'940.6'
p378
sg18
S'911.6'
p379
sg20
S'936.6'
p380
sg22
S'942.6'
p381
sa(dp382
g3
S'854.2'
p383
sg5
S'405.2'
p384
sg6
S'1433.8'
p385
sg8
S'1433.8'
p386
sg10
S'11.2'
p387
sg12
S'water'
p388
sg14
S'983.8'
p389
sg16
S'990.1'
p390
sg18
S'965.6'
p391
sg20
S'987.3'
p392
sg22
S'991.5'
p393
sa(dp394
g3
S'859.8'
p395
sg5
S'378.2'
p396
sg6
S'1477.8'
p397
sg8
S'1477.8'
p398
sg10
S'16.0'
p399
sg12
S'water'
p400
sg14
S'1032.6'
p401
sg16
S'1038.6'
p402
sg18
S'1009.6'
p403
sg20
S'1034.6'
p404
sg22
S'1040.6'
p405
sa(dp406
g3
S'876.9'
p407
sg5
S'406.6'
p408
sg6
S'1521.8'
p409
sg8
S'1521.8'
p410
sg10
S'16.0'
p411
sg12
S'water'
p412
sg14
S'1072.2'
p413
sg16
S'1078.2'
p414
sg18
S'1049.2'
p415
sg20
S'1074.2'
p416
sg22
S'1080.2'
p417
sa(dp418
g3
S'889.0'
p419
sg5
S'393.6'
p420
sg6
S'1565.8'
p421
sg8
S'1565.8'
p422
sg10
S'16.0'
p423
sg12
S'water'
p424
sg14
S'1116.2'
p425
sg16
S'1122.2'
p426
sg18
S'1093.2'
p427
sg20
S'1118.2'
p428
sg22
S'1124.2'
p429
sa(dp430
g3
S'895.7'
p431
sg5
S'395.6'
p432
sg6
S'1609.8'
p433
sg8
S'1609.8'
p434
sg10
S'16.0'
p435
sg12
S'water'
p436
sg14
S'1160.2'
p437
sg16
S'1166.2'
p438
sg18
S'1137.2'
p439
sg20
S'1162.2'
p440
sg22
S'1168.2'
p441
sa(dp442
g3
S'959.3'
p443
sg5
S'381.6'
p444
sg6
S'1653.8'
p445
sg8
S'1653.8'
p446
sg10
S'16.0'
p447
sg12
S'water'
p448
sg14
S'1204.2'
p449
sg16
S'1210.2'
p450
sg18
S'1181.2'
p451
sg20
S'1206.2'
p452
sg22
S'1212.2'
p453
sa(dp454
g3
S'993.3'
p455
sg5
S'387.6'
p456
sg6
S'1707.8'
p457
sg8
S'1707.8'
p458
sg10
S'28.0'
p459
sg12
S'water'
p460
sg14
S'1260.2'
p461
sg16
S'1269.2'
p462
sg18
S'1225.2'
p463
sg20
S'1268.2'
p464
sg22
S'1267.2'
p465
sa(dp466
g3
S'1052.4'
p467
sg5
S'366.6'
p468
sg6
S'1751.8'
p469
sg8
S'1751.8'
p470
sg10
S'16.0'
p471
sg12
S'water'
p472
sg14
S'1292.2'
p473
sg16
S'1298.2'
p474
sg18
S'1269.2'
p475
sg20
S'1294.2'
p476
sg22
S'1300.2'
p477
sa(dp478
g3
S'1078.4'
p479
sg5
S'370.6'
p480
sg6
S'1795.8'
p481
sg8
S'1795.8'
p482
sg10
S'16.0'
p483
sg12
S'water'
p484
sg14
S'1336.2'
p485
sg16
S'1342.2'
p486
sg18
S'1313.2'
p487
sg20
S'1338.2'
p488
sg22
S'1344.2'
p489
saF462.11750000000012
F327.44594594594616
I37
t.