((lp1
(dp2
S'Arrival'
p3
S'6.4'
p4
sS'Late'
p5
I0
sS'Depart'
p6
S'119.4'
p7
sS'POWER'
p8
S'72.4'
p9
sS'Power_time'
p10
S'54.0'
p11
sS'Bag_time'
p12
S'28.0'
p13
sS'WATER'
p14
S'water'
p15
sS'BAGGAGE'
p16
S'46.4'
p17
sS'CATER'
p18
S'55.4'
p19
sS'LANDING'
p20
S'11.4'
p21
sS'CLEAN'
p22
S'54.4'
p23
sS'FUEL'
p24
S'53.4'
p25
sa(dp26
g3
S'25.7'
p27
sg5
I0
sg6
S'120.7'
p28
sg8
S'81.7'
p29
sg10
S'44.0'
p30
sg12
S'16.0'
p31
sg14
S'water'
p32
sg16
S'53.7'
p33
sg18
S'59.7'
p34
sg20
S'30.7'
p35
sg22
S'55.7'
p36
sg24
S'61.7'
p37
sa(dp38
g3
S'59.4'
p39
sg5
I0
sg6
S'146.4'
p40
sg8
S'116.4'
p41
sg10
S'44.0'
p42
sg12
S'16.0'
p43
sg14
S'water'
p44
sg16
S'87.4'
p45
sg18
S'93.4'
p46
sg20
S'64.4'
p47
sg22
S'89.4'
p48
sg24
S'95.4'
p49
sa(dp50
g3
S'95.9'
p51
sg5
I0
sg6
S'213.9'
p52
sg8
S'147.5'
p53
sg10
S'39.6'
p54
sg12
S'11.2'
p55
sg14
S'water'
p56
sg16
S'119.1'
p57
sg18
S'125.4'
p58
sg20
S'100.9'
p59
sg22
S'122.6'
p60
sg24
S'126.8'
p61
sa(dp62
g3
S'118.6'
p63
sg5
I0
sg6
S'234.6'
p64
sg8
S'174.6'
p65
sg10
S'44.0'
p66
sg12
S'16.0'
p67
sg14
S'water'
p68
sg16
S'146.6'
p69
sg18
S'152.6'
p70
sg20
S'123.6'
p71
sg22
S'148.6'
p72
sg24
S'154.6'
p73
sa(dp74
g3
S'123.9'
p75
sg5
I0
sg6
S'203.9'
p76
sg8
S'191.5'
p77
sg10
S'44.0'
p78
sg12
S'16.0'
p79
sg14
S'water'
p80
sg16
S'151.9'
p81
sg18
S'157.9'
p82
sg20
S'128.9'
p83
sg22
S'153.9'
p84
sg24
S'159.9'
p85
sa(dp86
g3
S'174.8'
p87
sg5
I0
sg6
S'267.8'
p88
sg8
S'240.8'
p89
sg10
S'54.0'
p90
sg12
S'28.0'
p91
sg14
S'water'
p92
sg16
S'214.8'
p93
sg18
S'223.8'
p94
sg20
S'179.8'
p95
sg22
S'222.8'
p96
sg24
S'221.8'
p97
sa(dp98
g3
S'179.0'
p99
sg5
I0
sg6
S'273.0'
p100
sg8
S'235.5'
p101
sg10
S'44.0'
p102
sg12
S'16.0'
p103
sg14
S'water'
p104
sg16
S'207.0'
p105
sg18
S'213.0'
p106
sg20
S'184.0'
p107
sg22
S'209.0'
p108
sg24
S'215.0'
p109
sa(dp110
g3
S'199.7'
p111
sg5
I0
sg6
S'284.8'
p112
sg8
S'284.8'
p113
sg10
S'44.0'
p114
sg12
S'16.0'
p115
sg14
S'water'
p116
sg16
S'227.7'
p117
sg18
S'245.8'
p118
sg20
S'204.7'
p119
sg22
S'229.7'
p120
sg24
S'245.8'
p121
sa(dp122
g3
S'200.8'
p123
sg5
I0
sg6
S'279.5'
p124
sg8
S'279.5'
p125
sg10
S'44.0'
p126
sg12
S'16.0'
p127
sg14
S'water'
p128
sg16
S'230.8'
p129
sg18
S'235.0'
p130
sg20
S'205.8'
p131
sg22
S'240.8'
p132
sg24
S'239.0'
p133
sa(dp134
g3
S'235.5'
p135
sg5
I0
sg6
S'328.8'
p136
sg8
S'328.8'
p137
sg10
S'44.0'
p138
sg12
S'16.0'
p139
sg14
S'water'
p140
sg16
S'263.5'
p141
sg18
S'269.5'
p142
sg20
S'240.5'
p143
sg22
S'265.5'
p144
sg24
S'271.5'
p145
sa(dp146
g3
S'239.3'
p147
sg5
I0
sg6
S'323.5'
p148
sg8
S'323.5'
p149
sg10
S'44.0'
p150
sg12
S'16.0'
p151
sg14
S'water'
p152
sg16
S'267.3'
p153
sg18
S'273.3'
p154
sg20
S'244.3'
p155
sg22
S'269.3'
p156
sg24
S'275.3'
p157
sa(dp158
g3
S'242.8'
p159
sg5
I0
sg6
S'363.1'
p160
sg8
S'363.1'
p161
sg10
S'39.6'
p162
sg12
S'11.2'
p163
sg14
S'water'
p164
sg16
S'274.7'
p165
sg18
S'287.0'
p166
sg20
S'247.8'
p167
sg22
S'280.2'
p168
sg24
S'290.4'
p169
sa(dp170
g3
S'273.4'
p171
sg5
I0
sg6
S'407.1'
p172
sg8
S'407.1'
p173
sg10
S'44.0'
p174
sg12
S'16.0'
p175
sg14
S'water'
p176
sg16
S'301.4'
p177
sg18
S'307.4'
p178
sg20
S'278.4'
p179
sg22
S'303.4'
p180
sg24
S'309.4'
p181
sa(dp182
g3
S'281.5'
p183
sg5
I0
sg6
S'372.8'
p184
sg8
S'372.8'
p185
sg10
S'44.0'
p186
sg12
S'16.0'
p187
sg14
S'water'
p188
sg16
S'309.5'
p189
sg18
S'315.5'
p190
sg20
S'286.5'
p191
sg22
S'311.5'
p192
sg24
S'317.5'
p193
sa(dp194
g3
S'291.4'
p195
sg5
I0
sg6
S'416.8'
p196
sg8
S'416.8'
p197
sg10
S'44.0'
p198
sg12
S'16.0'
p199
sg14
S'water'
p200
sg16
S'319.4'
p201
sg18
S'329.4'
p202
sg20
S'296.4'
p203
sg22
S'321.4'
p204
sg24
S'333.4'
p205
sa(dp206
g3
S'323.7'
p207
sg5
S'42.4'
p208
sg6
S'461.1'
p209
sg8
S'461.1'
p210
sg10
S'54.0'
p211
sg12
S'28.0'
p212
sg14
S'water'
p213
sg16
S'363.7'
p214
sg18
S'372.7'
p215
sg20
S'328.7'
p216
sg22
S'371.7'
p217
sg24
S'370.7'
p218
sa(dp219
g3
S'340.5'
p220
sg5
I0
sg6
S'462.5'
p221
sg8
S'460.8'
p222
sg10
S'44.0'
p223
sg12
S'16.0'
p224
sg14
S'water'
p225
sg16
S'368.5'
p226
sg18
S'374.5'
p227
sg20
S'345.5'
p228
sg22
S'370.5'
p229
sg24
S'376.5'
p230
sa(dp231
g3
S'412.1'
p232
sg5
I0
sg6
S'535.1'
p233
sg8
S'505.1'
p234
sg10
S'44.0'
p235
sg12
S'16.0'
p236
sg14
S'water'
p237
sg16
S'440.1'
p238
sg18
S'446.1'
p239
sg20
S'417.1'
p240
sg22
S'442.1'
p241
sg24
S'448.1'
p242
sa(dp243
g3
S'413.3'
p244
sg5
I0
sg6
S'519.3'
p245
sg8
S'504.8'
p246
sg10
S'44.0'
p247
sg12
S'16.0'
p248
sg14
S'water'
p249
sg16
S'441.3'
p250
sg18
S'447.3'
p251
sg20
S'418.3'
p252
sg22
S'443.3'
p253
sg24
S'449.3'
p254
sa(dp255
g3
S'505.3'
p256
sg5
I0
sg6
S'618.3'
p257
sg8
S'561.3'
p258
sg10
S'44.0'
p259
sg12
S'16.0'
p260
sg14
S'water'
p261
sg16
S'533.3'
p262
sg18
S'539.3'
p263
sg20
S'510.3'
p264
sg22
S'535.3'
p265
sg24
S'541.3'
p266
sa(dp267
g3
S'537.8'
p268
sg5
I0
sg6
S'643.8'
p269
sg8
S'593.8'
p270
sg10
S'44.0'
p271
sg12
S'16.0'
p272
sg14
S'water'
p273
sg16
S'565.8'
p274
sg18
S'571.8'
p275
sg20
S'542.8'
p276
sg22
S'567.8'
p277
sg24
S'573.8'
p278
sa(dp279
g3
S'561.6'
p280
sg5
I0
sg6
S'637.6'
p281
sg8
S'617.6'
p282
sg10
S'44.0'
p283
sg12
S'16.0'
p284
sg14
S'water'
p285
sg16
S'589.6'
p286
sg18
S'595.6'
p287
sg20
S'566.6'
p288
sg22
S'591.6'
p289
sg24
S'597.6'
p290
sa(dp291
g3
S'585.4'
p292
sg5
I0
sg6
S'654.4'
p293
sg8
S'641.4'
p294
sg10
S'44.0'
p295
sg12
S'16.0'
p296
sg14
S'water'
p297
sg16
S'613.4'
p298
sg18
S'619.4'
p299
sg20
S'590.4'
p300
sg22
S'615.4'
p301
sg24
S'621.4'
p302
sa(dp303
g3
S'643.8'
p304
sg5
I0
sg6
S'756.8'
p305
sg8
S'699.8'
p306
sg10
S'44.0'
p307
sg12
S'16.0'
p308
sg14
S'water'
p309
sg16
S'671.8'
p310
sg18
S'677.8'
p311
sg20
S'648.8'
p312
sg22
S'673.8'
p313
sg24
S'679.8'
p314
sa(dp315
g3
S'676.4'
p316
sg5
I0
sg6
S'747.4'
p317
sg8
S'732.4'
p318
sg10
S'44.0'
p319
sg12
S'16.0'
p320
sg14
S'water'
p321
sg16
S'704.4'
p322
sg18
S'710.4'
p323
sg20
S'681.4'
p324
sg22
S'706.4'
p325
sg24
S'712.4'
p326
sa(dp327
g3
S'765.2'
p328
sg5
I0
sg6
S'851.2'
p329
sg8
S'821.2'
p330
sg10
S'44.0'
p331
sg12
S'16.0'
p332
sg14
S'water'
p333
sg16
S'793.2'
p334
sg18
S'799.2'
p335
sg20
S'770.2'
p336
sg22
S'795.2'
p337
sg24
S'801.2'
p338
sa(dp339
g3
S'783.1'
p340
sg5
I0
sg6
S'888.1'
p341
sg8
S'839.1'
p342
sg10
S'44.0'
p343
sg12
S'16.0'
p344
sg14
S'water'
p345
sg16
S'811.1'
p346
sg18
S'817.1'
p347
sg20
S'788.1'
p348
sg22
S'813.1'
p349
sg24
S'819.1'
p350
sa(dp351
g3
S'791.5'
p352
sg5
I0
sg6
S'867.5'
p353
sg8
S'865.2'
p354
sg10
S'44.0'
p355
sg12
S'16.0'
p356
sg14
S'water'
p357
sg16
S'819.5'
p358
sg18
S'825.5'
p359
sg20
S'796.5'
p360
sg22
S'821.5'
p361
sg24
S'827.5'
p362
sa(dp363
g3
S'806.8'
p364
sg5
I0
sg6
S'883.1'
p365
sg8
S'883.1'
p366
sg10
S'44.0'
p367
sg12
S'16.0'
p368
sg14
S'water'
p369
sg16
S'834.8'
p370
sg18
S'840.8'
p371
sg20
S'811.8'
p372
sg22
S'836.8'
p373
sg24
S'843.1'
p374
sa(dp375
g3
S'852.2'
p376
sg5
I0
sg6
S'936.2'
p377
sg8
S'909.2'
p378
sg10
S'44.0'
p379
sg12
S'16.0'
p380
sg14
S'water'
p381
sg16
S'880.2'
p382
sg18
S'886.2'
p383
sg20
S'857.2'
p384
sg22
S'882.2'
p385
sg24
S'888.2'
p386
sa(dp387
g3
S'868.2'
p388
sg5
I0
sg6
S'982.2'
p389
sg8
S'927.1'
p390
sg10
S'44.0'
p391
sg12
S'16.0'
p392
sg14
S'water'
p393
sg16
S'896.2'
p394
sg18
S'902.2'
p395
sg20
S'873.2'
p396
sg22
S'898.2'
p397
sg24
S'904.2'
p398
sa(dp399
g3
S'905.1'
p400
sg5
I0
sg6
S'1007.1'
p401
sg8
S'961.1'
p402
sg10
S'44.0'
p403
sg12
S'16.0'
p404
sg14
S'water'
p405
sg16
S'933.1'
p406
sg18
S'939.1'
p407
sg20
S'910.1'
p408
sg22
S'935.1'
p409
sg24
S'941.1'
p410
sa(dp411
g3
S'924.8'
p412
sg5
I0
sg6
S'1041.8'
p413
sg8
S'980.8'
p414
sg10
S'44.0'
p415
sg12
S'16.0'
p416
sg14
S'water'
p417
sg16
S'952.8'
p418
sg18
S'958.8'
p419
sg20
S'929.8'
p420
sg22
S'954.8'
p421
sg24
S'960.8'
p422
sa(dp423
g3
S'931.4'
p424
sg5
I0
sg6
S'1015.1'
p425
sg8
S'1015.1'
p426
sg10
S'54.0'
p427
sg12
S'28.0'
p428
sg14
S'water'
p429
sg16
S'971.4'
p430
sg18
S'980.4'
p431
sg20
S'936.4'
p432
sg22
S'979.4'
p433
sg24
S'978.4'
p434
sa(dp435
g3
S'932.6'
p436
sg5
S'20.8'
p437
sg6
S'1074.3'
p438
sg8
S'1074.3'
p439
sg10
S'39.6'
p440
sg12
S'11.2'
p441
sg14
S'water'
p442
sg16
S'980.0'
p443
sg18
S'998.2'
p444
sg20
S'937.6'
p445
sg22
S'994.1'
p446
sg24
S'1003.6'
p447
sa(dp448
g3
S'938.0'
p449
sg5
S'22.2'
p450
sg6
S'1059.1'
p451
sg8
S'1059.1'
p452
sg10
S'44.0'
p453
sg12
S'16.0'
p454
sg14
S'water'
p455
sg16
S'968.8'
p456
sg18
S'980.8'
p457
sg20
S'943.0'
p458
sg22
S'972.8'
p459
sg24
S'984.8'
p460
sa(dp461
g3
S'958.6'
p462
sg5
I0
sg6
S'1034.8'
p463
sg8
S'1034.8'
p464
sg10
S'54.0'
p465
sg12
S'28.0'
p466
sg14
S'water'
p467
sg16
S'999.4'
p468
sg18
S'1017.4'
p469
sg20
S'963.6'
p470
sg22
S'1008.8'
p471
sg24
S'1013.4'
p472
sa(dp473
g3
S'1035.7'
p474
sg5
I0
sg6
S'1145.7'
p475
sg8
S'1113.1'
p476
sg10
S'54.0'
p477
sg12
S'28.0'
p478
sg14
S'water'
p479
sg16
S'1075.7'
p480
sg18
S'1084.7'
p481
sg20
S'1040.7'
p482
sg22
S'1083.7'
p483
sg24
S'1082.7'
p484
sa(dp485
g3
S'1051.3'
p486
sg5
I0
sg6
S'1140.3'
p487
sg8
S'1118.3'
p488
sg10
S'44.0'
p489
sg12
S'16.0'
p490
sg14
S'water'
p491
sg16
S'1079.3'
p492
sg18
S'1085.3'
p493
sg20
S'1056.3'
p494
sg22
S'1081.3'
p495
sg24
S'1087.3'
p496
saF100.66
F28.466666666666669
I3
t.