((lp1
(dp2
S'Arrival'
p3
S'34.7'
p4
sS'Late'
p5
S'50.0'
p6
sS'Depart'
p7
S'156.7'
p8
sS'POWER'
p9
S'156.7'
p10
sS'LANDING'
p11
S'39.7'
p12
sS'WATER'
p13
S'water'
p14
sS'BAGGAGE'
p15
S'86.7'
p16
sS'CATER'
p17
S'68.7'
p18
sS'CLEAN'
p19
S'82.7'
p20
sS'FUEL'
p21
S'81.7'
p22
sa(dp23
g3
S'105.9'
p24
sg5
I0
sg7
S'191.9'
p25
sg9
S'157.5'
p26
sg11
S'110.9'
p27
sg13
S'water'
p28
sg15
S'129.1'
p29
sg17
S'132.6'
p30
sg19
S'132.6'
p31
sg21
S'136.8'
p32
sa(dp33
g3
S'121.9'
p34
sg5
S'7.4'
p35
sg7
S'196.3'
p36
sg9
S'196.3'
p37
sg11
S'126.9'
p38
sg13
S'water'
p39
sg15
S'145.1'
p40
sg17
S'148.6'
p41
sg19
S'148.6'
p42
sg21
S'152.8'
p43
sa(dp44
g3
S'164.2'
p45
sg5
I0
sg7
S'225.2'
p46
sg9
S'215.8'
p47
sg11
S'169.2'
p48
sg13
S'water'
p49
sg15
S'187.4'
p50
sg17
S'190.9'
p51
sg19
S'190.9'
p52
sg21
S'195.1'
p53
sa(dp54
g3
S'213.8'
p55
sg5
I0
sg7
S'299.8'
p56
sg9
S'265.4'
p57
sg11
S'218.8'
p58
sg13
S'water'
p59
sg15
S'236.9'
p60
sg17
S'240.4'
p61
sg19
S'240.4'
p62
sg21
S'244.7'
p63
sa(dp64
g3
S'226.5'
p65
sg5
I0
sg7
S'300.5'
p66
sg9
S'278.1'
p67
sg11
S'231.5'
p68
sg13
S'water'
p69
sg15
S'249.7'
p70
sg17
S'253.2'
p71
sg19
S'253.2'
p72
sg21
S'257.4'
p73
sa(dp74
g3
S'228.4'
p75
sg5
S'5.5'
p76
sg7
S'305.0'
p77
sg9
S'305.0'
p78
sg11
S'233.4'
p79
sg13
S'water'
p80
sg15
S'251.6'
p81
sg17
S'255.1'
p82
sg19
S'255.1'
p83
sg21
S'263.6'
p84
sa(dp85
g3
S'230.3'
p86
sg5
S'10.4'
p87
sg7
S'317.7'
p88
sg9
S'317.7'
p89
sg11
S'235.3'
p90
sg13
S'water'
p91
sg15
S'260.9'
p92
sg17
S'267.9'
p93
sg19
S'260.2'
p94
sg21
S'276.3'
p95
sa(dp96
g3
S'233.0'
p97
sg5
S'11.6'
p98
sg7
S'344.6'
p99
sg9
S'344.6'
p100
sg11
S'238.0'
p101
sg13
S'water'
p102
sg15
S'262.8'
p103
sg17
S'269.8'
p104
sg19
S'262.1'
p105
sg21
S'282.4'
p106
sa(dp107
g3
S'280.1'
p108
sg5
S'11.2'
p109
sg7
S'357.3'
p110
sg9
S'357.3'
p111
sg11
S'285.1'
p112
sg13
S'water'
p113
sg15
S'303.3'
p114
sg17
S'306.8'
p115
sg19
S'306.8'
p116
sg21
S'311.0'
p117
sa(dp118
g3
S'299.7'
p119
sg5
S'49.6'
p120
sg7
S'467.3'
p121
sg9
S'467.3'
p122
sg11
S'304.7'
p123
sg13
S'water'
p124
sg15
S'351.7'
p125
sg17
S'333.7'
p126
sg19
S'347.7'
p127
sg21
S'346.7'
p128
sa(dp129
g3
S'319.5'
p130
sg5
I0
sg7
S'412.5'
p131
sg9
S'384.2'
p132
sg11
S'324.5'
p133
sg13
S'water'
p134
sg15
S'342.7'
p135
sg17
S'346.2'
p136
sg19
S'346.2'
p137
sg21
S'350.4'
p138
sa(dp139
g3
S'417.3'
p140
sg5
I0
sg7
S'513.3'
p141
sg9
S'468.9'
p142
sg11
S'422.3'
p143
sg13
S'water'
p144
sg15
S'440.5'
p145
sg17
S'444.0'
p146
sg19
S'444.0'
p147
sg21
S'448.2'
p148
sa(dp149
g3
S'470.8'
p150
sg5
S'9.0'
p151
sg7
S'592.8'
p152
sg9
S'592.8'
p153
sg11
S'475.8'
p154
sg13
S'water'
p155
sg15
S'522.8'
p156
sg17
S'504.8'
p157
sg19
S'518.8'
p158
sg21
S'517.8'
p159
sa(dp160
g3
S'523.2'
p161
sg5
I0
sg7
S'583.2'
p162
sg9
S'574.8'
p163
sg11
S'528.2'
p164
sg13
S'water'
p165
sg15
S'546.4'
p166
sg17
S'549.9'
p167
sg19
S'549.9'
p168
sg21
S'554.1'
p169
sa(dp170
g3
S'541.4'
p171
sg5
S'7.7'
p172
sg7
S'654.0'
p173
sg9
S'654.0'
p174
sg11
S'546.4'
p175
sg13
S'water'
p176
sg15
S'564.6'
p177
sg17
S'568.1'
p178
sg19
S'568.1'
p179
sg21
S'572.3'
p180
sa(dp181
g3
S'542.0'
p182
sg5
S'6.4'
p183
sg7
S'614.4'
p184
sg9
S'614.4'
p185
sg11
S'547.0'
p186
sg13
S'water'
p187
sg15
S'565.2'
p188
sg17
S'568.7'
p189
sg19
S'568.7'
p190
sg21
S'573.0'
p191
sa(dp192
g3
S'564.8'
p193
sg5
S'6.6'
p194
sg7
S'632.4'
p195
sg9
S'632.4'
p196
sg11
S'569.8'
p197
sg13
S'water'
p198
sg15
S'588.0'
p199
sg17
S'591.5'
p200
sg19
S'591.5'
p201
sg21
S'595.7'
p202
sa(dp203
g3
S'634.6'
p204
sg5
I0
sg7
S'728.6'
p205
sg9
S'712.6'
p206
sg11
S'639.6'
p207
sg13
S'water'
p208
sg15
S'670.6'
p209
sg17
S'664.6'
p210
sg19
S'664.6'
p211
sg21
S'670.6'
p212
sa(dp213
g3
S'662.0'
p214
sg5
I0
sg7
S'762.0'
p215
sg9
S'713.6'
p216
sg11
S'667.0'
p217
sg13
S'water'
p218
sg15
S'685.2'
p219
sg17
S'688.7'
p220
sg19
S'688.7'
p221
sg21
S'692.9'
p222
sa(dp223
g3
S'668.1'
p224
sg5
I0
sg7
S'754.1'
p225
sg9
S'752.2'
p226
sg11
S'673.1'
p227
sg13
S'water'
p228
sg15
S'691.3'
p229
sg17
S'694.8'
p230
sg19
S'694.8'
p231
sg21
S'699.0'
p232
sa(dp233
g3
S'731.9'
p234
sg5
I0
sg7
S'842.9'
p235
sg9
S'783.5'
p236
sg11
S'736.9'
p237
sg13
S'water'
p238
sg15
S'755.1'
p239
sg17
S'758.6'
p240
sg19
S'758.6'
p241
sg21
S'762.8'
p242
sa(dp243
g3
S'754.2'
p244
sg5
I0
sg7
S'818.2'
p245
sg9
S'805.8'
p246
sg11
S'759.2'
p247
sg13
S'water'
p248
sg15
S'777.4'
p249
sg17
S'780.9'
p250
sg19
S'780.9'
p251
sg21
S'785.1'
p252
sa(dp253
g3
S'758.5'
p254
sg5
I0
sg7
S'852.5'
p255
sg9
S'823.1'
p256
sg11
S'763.5'
p257
sg13
S'water'
p258
sg15
S'781.8'
p259
sg17
S'785.2'
p260
sg19
S'785.2'
p261
sg21
S'789.4'
p262
sa(dp263
g3
S'758.6'
p264
sg5
I0
sg7
S'859.6'
p265
sg9
S'845.4'
p266
sg11
S'763.6'
p267
sg13
S'water'
p268
sg15
S'788.6'
p269
sg17
S'795.6'
p270
sg19
S'787.9'
p271
sg21
S'804.0'
p272
sa(dp273
g3
S'772.1'
p274
sg5
I0
sg7
S'868.1'
p275
sg9
S'862.7'
p276
sg11
S'777.1'
p277
sg13
S'water'
p278
sg15
S'795.3'
p279
sg17
S'800.0'
p280
sg19
S'798.8'
p281
sg21
S'808.3'
p282
sa(dp283
g3
S'780.9'
p284
sg5
S'26.4'
p285
sg7
S'902.3'
p286
sg9
S'902.3'
p287
sg11
S'785.9'
p288
sg13
S'water'
p289
sg15
S'804.1'
p290
sg17
S'810.3'
p291
sg19
S'807.6'
p292
sg21
S'822.9'
p293
sa(dp294
g3
S'793.2'
p295
sg5
S'14.8'
p296
sg7
S'885.0'
p297
sg9
S'885.0'
p298
sg11
S'798.2'
p299
sg13
S'water'
p300
sg15
S'816.4'
p301
sg17
S'819.9'
p302
sg19
S'819.9'
p303
sg21
S'827.2'
p304
sa(dp305
g3
S'806.5'
p306
sg5
S'27.3'
p307
sg7
S'941.9'
p308
sg9
S'941.9'
p309
sg11
S'811.5'
p310
sg13
S'water'
p311
sg15
S'829.8'
p312
sg17
S'833.2'
p313
sg19
S'833.2'
p314
sg21
S'841.8'
p315
sa(dp316
g3
S'832.2'
p317
sg5
S'20.9'
p318
sg7
S'964.2'
p319
sg9
S'964.2'
p320
sg11
S'837.2'
p321
sg13
S'water'
p322
sg15
S'855.4'
p323
sg17
S'858.9'
p324
sg19
S'858.9'
p325
sg21
S'863.1'
p326
sa(dp327
g3
S'832.3'
p328
sg5
S'23.3'
p329
sg7
S'924.6'
p330
sg9
S'924.6'
p331
sg11
S'837.3'
p332
sg13
S'water'
p333
sg15
S'855.5'
p334
sg17
S'859.0'
p335
sg19
S'859.0'
p336
sg21
S'863.2'
p337
sa(dp338
g3
S'842.9'
p339
sg5
S'31.6'
p340
sg7
S'981.5'
p341
sg9
S'981.5'
p342
sg11
S'847.9'
p343
sg13
S'water'
p344
sg15
S'866.6'
p345
sg17
S'873.6'
p346
sg19
S'869.6'
p347
sg21
S'882.0'
p348
sa(dp349
g3
S'857.0'
p350
sg5
S'47.1'
p351
sg7
S'1021.1'
p352
sg9
S'1021.1'
p353
sg11
S'862.0'
p354
sg13
S'water'
p355
sg15
S'880.2'
p356
sg17
S'883.7'
p357
sg19
S'883.7'
p358
sg21
S'887.9'
p359
sa(dp360
g3
S'886.0'
p361
sg5
S'43.7'
p362
sg7
S'1003.8'
p363
sg9
S'1003.8'
p364
sg11
S'891.0'
p365
sg13
S'water'
p366
sg15
S'909.2'
p367
sg17
S'912.7'
p368
sg19
S'912.7'
p369
sg21
S'916.9'
p370
sa(dp371
g3
S'925.2'
p372
sg5
S'53.2'
p373
sg7
S'1043.4'
p374
sg9
S'1043.4'
p375
sg11
S'930.2'
p376
sg13
S'water'
p377
sg15
S'948.4'
p378
sg17
S'951.9'
p379
sg19
S'951.9'
p380
sg21
S'956.1'
p381
sa(dp382
g3
S'925.5'
p383
sg5
S'30.2'
p384
sg7
S'1060.7'
p385
sg9
S'1060.7'
p386
sg11
S'930.5'
p387
sg13
S'water'
p388
sg15
S'948.7'
p389
sg17
S'952.2'
p390
sg19
S'952.2'
p391
sg21
S'956.4'
p392
sa(dp393
g3
S'970.5'
p394
sg5
S'39.4'
p395
sg7
S'1083.0'
p396
sg9
S'1083.0'
p397
sg11
S'975.5'
p398
sg13
S'water'
p399
sg15
S'993.7'
p400
sg17
S'997.2'
p401
sg19
S'997.2'
p402
sg21
S'1001.4'
p403
sa(dp404
g3
S'1060.8'
p405
sg5
I0
sg7
S'1136.8'
p406
sg9
S'1112.4'
p407
sg11
S'1065.8'
p408
sg13
S'water'
p409
sg15
S'1084.0'
p410
sg17
S'1087.5'
p411
sg19
S'1087.5'
p412
sg21
S'1091.7'
p413
sa(dp414
g3
S'1067.4'
p415
sg5
I0
sg7
S'1174.4'
p416
sg9
S'1122.6'
p417
sg11
S'1072.4'
p418
sg13
S'water'
p419
sg15
S'1090.6'
p420
sg17
S'1094.1'
p421
sg19
S'1094.1'
p422
sg21
S'1098.3'
p423
sa(dp424
g3
S'1071.0'
p425
sg5
I0
sg7
S'1156.0'
p426
sg9
S'1152.0'
p427
sg11
S'1076.0'
p428
sg13
S'water'
p429
sg15
S'1095.2'
p430
sg17
S'1102.2'
p431
sg19
S'1097.7'
p432
sg21
S'1110.6'
p433
saF100.5175
F24.240909090909096
I22
t.