((lp1
(dp2
S'Arrival'
p3
S'2.1'
p4
sS'Late'
p5
S'42.0'
p6
sS'Depart'
p7
S'124.1'
p8
sS'POWER'
p9
S'124.1'
p10
sS'LANDING'
p11
S'7.1'
p12
sS'WATER'
p13
S'water'
p14
sS'BAGGAGE'
p15
S'54.1'
p16
sS'CATER'
p17
S'36.1'
p18
sS'CLEAN'
p19
S'50.1'
p20
sS'FUEL'
p21
S'49.1'
p22
sa(dp23
g3
S'22.2'
p24
sg5
I0
sg7
S'119.2'
p25
sg9
S'73.8'
p26
sg11
S'27.2'
p27
sg13
S'water'
p28
sg15
S'45.4'
p29
sg17
S'48.9'
p30
sg19
S'48.9'
p31
sg21
S'53.1'
p32
sa(dp33
g3
S'31.3'
p34
sg5
I0
sg7
S'115.3'
p35
sg9
S'82.9'
p36
sg11
S'36.3'
p37
sg13
S'water'
p38
sg15
S'54.5'
p39
sg17
S'58.0'
p40
sg19
S'58.0'
p41
sg21
S'62.2'
p42
sa(dp43
g3
S'31.9'
p44
sg5
I0
sg7
S'113.4'
p45
sg9
S'113.4'
p46
sg11
S'36.9'
p47
sg13
S'water'
p48
sg15
S'56.6'
p49
sg17
S'58.6'
p50
sg19
S'58.6'
p51
sg21
S'68.0'
p52
sa(dp53
g3
S'45.1'
p54
sg5
S'37.3'
p55
sg7
S'179.4'
p56
sg9
S'179.4'
p57
sg11
S'50.1'
p58
sg13
S'water'
p59
sg15
S'81.2'
p60
sg17
S'75.2'
p61
sg19
S'75.2'
p62
sg21
S'81.2'
p63
sa(dp64
g3
S'59.2'
p65
sg5
I0
sg7
S'133.2'
p66
sg9
S'122.5'
p67
sg11
S'64.2'
p68
sg13
S'water'
p69
sg15
S'82.4'
p70
sg17
S'85.9'
p71
sg19
S'85.9'
p72
sg21
S'90.1'
p73
sa(dp74
g3
S'68.5'
p75
sg5
I0
sg7
S'171.6'
p76
sg9
S'162.1'
p77
sg11
S'73.5'
p78
sg13
S'water'
p79
sg15
S'91.8'
p80
sg17
S'95.2'
p81
sg19
S'95.2'
p82
sg21
S'99.4'
p83
sa(dp84
g3
S'190.2'
p85
sg5
I0
sg7
S'260.2'
p86
sg9
S'241.8'
p87
sg11
S'195.2'
p88
sg13
S'water'
p89
sg15
S'213.4'
p90
sg17
S'216.9'
p91
sg19
S'216.9'
p92
sg21
S'221.1'
p93
sa(dp94
g3
S'252.9'
p95
sg5
I0
sg7
S'367.9'
p96
sg9
S'304.5'
p97
sg11
S'257.9'
p98
sg13
S'water'
p99
sg15
S'276.1'
p100
sg17
S'279.6'
p101
sg19
S'279.6'
p102
sg21
S'283.8'
p103
sa(dp104
g3
S'288.3'
p105
sg5
I0
sg7
S'406.3'
p106
sg9
S'339.9'
p107
sg11
S'293.3'
p108
sg13
S'water'
p109
sg15
S'311.5'
p110
sg17
S'315.0'
p111
sg19
S'315.0'
p112
sg21
S'319.2'
p113
sa(dp114
g3
S'292.2'
p115
sg5
I0
sg7
S'352.2'
p116
sg9
S'343.8'
p117
sg11
S'297.2'
p118
sg13
S'water'
p119
sg15
S'315.4'
p120
sg17
S'318.9'
p121
sg19
S'318.9'
p122
sg21
S'323.1'
p123
sa(dp124
g3
S'370.8'
p125
sg5
I0
sg7
S'484.8'
p126
sg9
S'422.4'
p127
sg11
S'375.8'
p128
sg13
S'water'
p129
sg15
S'394.0'
p130
sg17
S'397.5'
p131
sg19
S'397.5'
p132
sg21
S'401.7'
p133
sa(dp134
g3
S'388.9'
p135
sg5
I0
sg7
S'488.9'
p136
sg9
S'440.5'
p137
sg11
S'393.9'
p138
sg13
S'water'
p139
sg15
S'412.1'
p140
sg17
S'415.6'
p141
sg19
S'415.6'
p142
sg21
S'419.8'
p143
sa(dp144
g3
S'466.0'
p145
sg5
I0
sg7
S'546.0'
p146
sg9
S'517.6'
p147
sg11
S'471.0'
p148
sg13
S'water'
p149
sg15
S'489.2'
p150
sg17
S'492.7'
p151
sg19
S'492.7'
p152
sg21
S'496.9'
p153
sa(dp154
g3
S'523.8'
p155
sg5
I0
sg7
S'592.8'
p156
sg9
S'575.4'
p157
sg11
S'528.8'
p158
sg13
S'water'
p159
sg15
S'547.0'
p160
sg17
S'550.5'
p161
sg19
S'550.5'
p162
sg21
S'554.7'
p163
sa(dp164
g3
S'524.6'
p165
sg5
I0
sg7
S'596.6'
p166
sg9
S'576.2'
p167
sg11
S'529.6'
p168
sg13
S'water'
p169
sg15
S'547.8'
p170
sg17
S'551.3'
p171
sg19
S'551.3'
p172
sg21
S'555.5'
p173
sa(dp174
g3
S'545.4'
p175
sg5
I0
sg7
S'664.4'
p176
sg9
S'597.0'
p177
sg11
S'550.4'
p178
sg13
S'water'
p179
sg15
S'568.6'
p180
sg17
S'572.1'
p181
sg19
S'572.1'
p182
sg21
S'576.3'
p183
sa(dp184
g3
S'585.5'
p185
sg5
I0
sg7
S'667.5'
p186
sg9
S'637.1'
p187
sg11
S'590.5'
p188
sg13
S'water'
p189
sg15
S'608.7'
p190
sg17
S'612.2'
p191
sg19
S'612.2'
p192
sg21
S'616.4'
p193
sa(dp194
g3
S'636.3'
p195
sg5
I0
sg7
S'728.3'
p196
sg9
S'687.9'
p197
sg11
S'641.3'
p198
sg13
S'water'
p199
sg15
S'659.5'
p200
sg17
S'663.0'
p201
sg19
S'663.0'
p202
sg21
S'667.2'
p203
sa(dp204
g3
S'659.9'
p205
sg5
I0
sg7
S'722.9'
p206
sg9
S'711.5'
p207
sg11
S'664.9'
p208
sg13
S'water'
p209
sg15
S'683.1'
p210
sg17
S'686.6'
p211
sg19
S'686.6'
p212
sg21
S'690.8'
p213
sa(dp214
g3
S'691.6'
p215
sg5
I0
sg7
S'762.6'
p216
sg9
S'743.2'
p217
sg11
S'696.6'
p218
sg13
S'water'
p219
sg15
S'714.8'
p220
sg17
S'718.3'
p221
sg19
S'718.3'
p222
sg21
S'722.5'
p223
sa(dp224
g3
S'694.8'
p225
sg5
I0
sg7
S'779.8'
p226
sg9
S'746.4'
p227
sg11
S'699.8'
p228
sg13
S'water'
p229
sg15
S'718.0'
p230
sg17
S'721.5'
p231
sg19
S'721.5'
p232
sg21
S'725.7'
p233
sa(dp234
g3
S'708.2'
p235
sg5
I0
sg7
S'825.2'
p236
sg9
S'759.8'
p237
sg11
S'713.2'
p238
sg13
S'water'
p239
sg15
S'731.4'
p240
sg17
S'734.9'
p241
sg19
S'734.9'
p242
sg21
S'739.1'
p243
sa(dp244
g3
S'715.6'
p245
sg5
S'24.8'
p246
sg7
S'856.4'
p247
sg9
S'856.4'
p248
sg11
S'720.6'
p249
sg13
S'water'
p250
sg15
S'767.6'
p251
sg17
S'749.6'
p252
sg19
S'763.6'
p253
sg21
S'762.6'
p254
sa(dp255
g3
S'722.0'
p256
sg5
S'55.2'
p257
sg7
S'853.2'
p258
sg9
S'853.2'
p259
sg11
S'727.0'
p260
sg13
S'water'
p261
sg15
S'774.0'
p262
sg17
S'756.0'
p263
sg19
S'770.0'
p264
sg21
S'769.0'
p265
sa(dp266
g3
S'773.6'
p267
sg5
I0
sg7
S'870.6'
p268
sg9
S'825.2'
p269
sg11
S'778.6'
p270
sg13
S'water'
p271
sg15
S'796.8'
p272
sg17
S'800.3'
p273
sg19
S'800.3'
p274
sg21
S'804.5'
p275
sa(dp276
g3
S'793.0'
p277
sg5
I0
sg7
S'899.0'
p278
sg9
S'864.8'
p279
sg11
S'798.0'
p280
sg13
S'water'
p281
sg15
S'816.2'
p282
sg17
S'819.7'
p283
sg19
S'819.7'
p284
sg21
S'823.9'
p285
sa(dp286
g3
S'884.2'
p287
sg5
I0
sg7
S'989.2'
p288
sg9
S'935.8'
p289
sg11
S'889.2'
p290
sg13
S'water'
p291
sg15
S'907.4'
p292
sg17
S'910.9'
p293
sg19
S'910.9'
p294
sg21
S'915.1'
p295
sa(dp296
g3
S'896.0'
p297
sg5
I0
sg7
S'991.0'
p298
sg9
S'947.6'
p299
sg11
S'901.0'
p300
sg13
S'water'
p301
sg15
S'919.2'
p302
sg17
S'922.7'
p303
sg19
S'922.7'
p304
sg21
S'926.9'
p305
sa(dp306
g3
S'910.2'
p307
sg5
I0
sg7
S'983.2'
p308
sg9
S'961.8'
p309
sg11
S'915.2'
p310
sg13
S'water'
p311
sg15
S'933.4'
p312
sg17
S'936.9'
p313
sg19
S'936.9'
p314
sg21
S'941.1'
p315
sa(dp316
g3
S'933.0'
p317
sg5
I0
sg7
S'1055.0'
p318
sg9
S'1055.0'
p319
sg11
S'938.0'
p320
sg13
S'water'
p321
sg15
S'985.0'
p322
sg17
S'967.0'
p323
sg19
S'981.0'
p324
sg21
S'980.0'
p325
sa(dp326
g3
S'957.5'
p327
sg5
I0
sg7
S'1052.5'
p328
sg9
S'1009.1'
p329
sg11
S'962.5'
p330
sg13
S'water'
p331
sg15
S'980.7'
p332
sg17
S'984.2'
p333
sg19
S'984.2'
p334
sg21
S'988.4'
p335
sa(dp336
g3
S'978.2'
p337
sg5
I0
sg7
S'1096.2'
p338
sg9
S'1056.2'
p339
sg11
S'983.2'
p340
sg13
S'water'
p341
sg15
S'1014.2'
p342
sg17
S'1008.2'
p343
sg19
S'1008.2'
p344
sg21
S'1014.2'
p345
sa(dp346
g3
S'979.1'
p347
sg5
S'35.1'
p348
sg7
S'1134.2'
p349
sg9
S'1134.2'
p350
sg11
S'984.1'
p351
sg13
S'water'
p352
sg15
S'1002.3'
p353
sg17
S'1005.8'
p354
sg19
S'1005.8'
p355
sg21
S'1010.0'
p356
sa(dp357
g3
S'981.7'
p358
sg5
S'24.8'
p359
sg7
S'1094.6'
p360
sg9
S'1094.6'
p361
sg11
S'986.7'
p362
sg13
S'water'
p363
sg15
S'1004.9'
p364
sg17
S'1008.4'
p365
sg19
S'1008.4'
p366
sg21
S'1012.6'
p367
sa(dp368
g3
S'989.4'
p369
sg5
S'55.7'
p370
sg7
S'1119.1'
p371
sg9
S'1119.1'
p372
sg11
S'994.4'
p373
sg13
S'water'
p374
sg15
S'1042.3'
p375
sg17
S'1027.8'
p376
sg19
S'1037.4'
p377
sg21
S'1045.0'
p378
sa(dp379
g3
S'995.6'
p380
sg5
I0
sg7
S'1095.8'
p381
sg9
S'1095.8'
p382
sg11
S'1000.6'
p383
sg13
S'water'
p384
sg15
S'1018.8'
p385
sg17
S'1022.9'
p386
sg19
S'1022.3'
p387
sg21
S'1031.5'
p388
sa(dp389
g3
S'1022.7'
p390
sg5
S'31.9'
p391
sg7
S'1158.7'
p392
sg9
S'1158.7'
p393
sg11
S'1027.7'
p394
sg13
S'water'
p395
sg15
S'1045.9'
p396
sg17
S'1049.4'
p397
sg19
S'1049.4'
p398
sg21
S'1053.6'
p399
sa(dp400
g3
S'1026.2'
p401
sg5
S'103.6'
p402
sg7
S'1205.8'
p403
sg9
S'1205.8'
p404
sg11
S'1031.2'
p405
sg13
S'water'
p406
sg15
S'1078.2'
p407
sg17
S'1060.2'
p408
sg19
S'1074.2'
p409
sg21
S'1073.2'
p410
sa(dp411
g3
S'1073.4'
p412
sg5
S'89.8'
p413
sg7
S'1244.2'
p414
sg9
S'1244.2'
p415
sg11
S'1078.4'
p416
sg13
S'water'
p417
sg15
S'1125.4'
p418
sg17
S'1107.4'
p419
sg19
S'1121.4'
p420
sg21
S'1120.4'
p421
saF104.75499999999997
F50.019999999999996
I10
t.