((lp1
(dp2
S'Arrival'
p3
S'16.8'
p4
sS'Late'
p5
I0
sS'Depart'
p6
S'138.8'
p7
sS'POWER'
p8
S'138.8'
p9
sS'LANDING'
p10
S'21.8'
p11
sS'WATER'
p12
S'water'
p13
sS'BAGGAGE'
p14
S'68.8'
p15
sS'CATER'
p16
S'50.8'
p17
sS'CLEAN'
p18
S'64.8'
p19
sS'FUEL'
p20
S'63.8'
p21
sa(dp22
g3
S'94.5'
p23
sg5
I0
sg6
S'154.5'
p24
sg8
S'146.1'
p25
sg10
S'99.5'
p26
sg12
S'water'
p27
sg14
S'117.7'
p28
sg16
S'121.2'
p29
sg18
S'121.2'
p30
sg20
S'125.4'
p31
sa(dp32
g3
S'133.6'
p33
sg5
I0
sg6
S'242.6'
p34
sg8
S'185.2'
p35
sg10
S'138.6'
p36
sg12
S'water'
p37
sg14
S'156.8'
p38
sg16
S'160.2'
p39
sg18
S'160.2'
p40
sg20
S'164.5'
p41
sa(dp42
g3
S'146.3'
p43
sg5
I0
sg6
S'251.3'
p44
sg8
S'197.9'
p45
sg10
S'151.3'
p46
sg12
S'water'
p47
sg14
S'169.5'
p48
sg16
S'173.0'
p49
sg18
S'173.0'
p50
sg20
S'177.2'
p51
sa(dp52
g3
S'148.4'
p53
sg5
I0
sg6
S'258.4'
p54
sg8
S'200.0'
p55
sg10
S'153.4'
p56
sg12
S'water'
p57
sg14
S'171.6'
p58
sg16
S'175.1'
p59
sg18
S'175.1'
p60
sg20
S'179.3'
p61
sa(dp62
g3
S'181.7'
p63
sg5
S'35.0'
p64
sg6
S'303.7'
p65
sg8
S'303.7'
p66
sg10
S'186.7'
p67
sg12
S'water'
p68
sg14
S'233.7'
p69
sg16
S'215.7'
p70
sg18
S'229.7'
p71
sg20
S'228.7'
p72
sa(dp73
g3
S'195.3'
p74
sg5
I0
sg6
S'286.3'
p75
sg8
S'246.9'
p76
sg10
S'200.3'
p77
sg12
S'water'
p78
sg14
S'218.5'
p79
sg16
S'222.0'
p80
sg18
S'222.0'
p81
sg20
S'226.2'
p82
sa(dp83
g3
S'215.3'
p84
sg5
S'21.0'
p85
sg6
S'337.3'
p86
sg8
S'337.3'
p87
sg10
S'220.3'
p88
sg12
S'water'
p89
sg14
S'267.3'
p90
sg16
S'249.3'
p91
sg18
S'263.3'
p92
sg20
S'262.3'
p93
sa(dp94
g3
S'217.4'
p95
sg5
S'44.5'
p96
sg6
S'376.9'
p97
sg8
S'376.9'
p98
sg10
S'222.4'
p99
sg12
S'water'
p100
sg14
S'240.6'
p101
sg16
S'244.1'
p102
sg18
S'244.1'
p103
sg20
S'248.3'
p104
sa(dp105
g3
S'224.4'
p106
sg5
I0
sg6
S'330.4'
p107
sg8
S'312.9'
p108
sg10
S'229.4'
p109
sg12
S'water'
p110
sg14
S'260.4'
p111
sg16
S'254.4'
p112
sg18
S'254.4'
p113
sg20
S'260.4'
p114
sa(dp115
g3
S'226.5'
p116
sg5
S'41.4'
p117
sg6
S'382.9'
p118
sg8
S'382.9'
p119
sg10
S'231.5'
p120
sg12
S'water'
p121
sg14
S'251.8'
p122
sg16
S'258.8'
p123
sg18
S'253.2'
p124
sg20
S'267.2'
p125
sa(dp126
g3
S'248.2'
p127
sg5
S'25.3'
p128
sg6
S'352.5'
p129
sg8
S'352.5'
p130
sg10
S'253.2'
p131
sg12
S'water'
p132
sg14
S'271.4'
p133
sg16
S'274.9'
p134
sg18
S'274.9'
p135
sg20
S'279.3'
p136
sa(dp137
g3
S'254.7'
p138
sg5
S'22.6'
p139
sg6
S'343.3'
p140
sg8
S'343.3'
p141
sg10
S'259.7'
p142
sg12
S'water'
p143
sg14
S'277.9'
p144
sg16
S'281.4'
p145
sg18
S'281.4'
p146
sg20
S'285.6'
p147
sa(dp148
g3
S'259.9'
p149
sg5
S'30.2'
p150
sg6
S'392.1'
p151
sg8
S'392.1'
p152
sg10
S'264.9'
p153
sg12
S'water'
p154
sg14
S'283.1'
p155
sg16
S'286.6'
p156
sg18
S'286.6'
p157
sg20
S'290.8'
p158
sa(dp159
g3
S'344.7'
p160
sg5
I0
sg6
S'449.7'
p161
sg8
S'416.5'
p162
sg10
S'349.7'
p163
sg12
S'water'
p164
sg14
S'367.9'
p165
sg16
S'371.4'
p166
sg18
S'371.4'
p167
sg20
S'375.6'
p168
sa(dp169
g3
S'346.8'
p170
sg5
I0
sg6
S'449.8'
p171
sg8
S'422.5'
p172
sg10
S'351.8'
p173
sg12
S'water'
p174
sg14
S'370.0'
p175
sg16
S'373.5'
p176
sg18
S'373.5'
p177
sg20
S'377.7'
p178
sa(dp179
g3
S'355.9'
p180
sg5
I0
sg6
S'474.9'
p181
sg8
S'431.7'
p182
sg10
S'360.9'
p183
sg12
S'water'
p184
sg14
S'379.1'
p185
sg16
S'382.6'
p186
sg18
S'382.6'
p187
sg20
S'386.8'
p188
sa(dp189
g3
S'413.6'
p190
sg5
I0
sg6
S'529.6'
p191
sg8
S'465.2'
p192
sg10
S'418.6'
p193
sg12
S'water'
p194
sg14
S'436.8'
p195
sg16
S'440.3'
p196
sg18
S'440.3'
p197
sg20
S'444.5'
p198
sa(dp199
g3
S'447.7'
p200
sg5
I0
sg6
S'525.7'
p201
sg8
S'499.3'
p202
sg10
S'452.7'
p203
sg12
S'water'
p204
sg14
S'470.9'
p205
sg16
S'474.4'
p206
sg18
S'474.4'
p207
sg20
S'478.6'
p208
sa(dp209
g3
S'469.2'
p210
sg5
I0
sg6
S'556.2'
p211
sg8
S'547.2'
p212
sg10
S'474.2'
p213
sg12
S'water'
p214
sg14
S'505.2'
p215
sg16
S'499.2'
p216
sg18
S'499.2'
p217
sg20
S'505.2'
p218
sa(dp219
g3
S'510.4'
p220
sg5
I0
sg6
S'626.4'
p221
sg8
S'562.0'
p222
sg10
S'515.4'
p223
sg12
S'water'
p224
sg14
S'533.6'
p225
sg16
S'537.1'
p226
sg18
S'537.1'
p227
sg20
S'541.3'
p228
sa(dp229
g3
S'511.1'
p230
sg5
I0
sg6
S'579.1'
p231
sg8
S'562.7'
p232
sg10
S'516.1'
p233
sg12
S'water'
p234
sg14
S'534.3'
p235
sg16
S'537.8'
p236
sg18
S'537.8'
p237
sg20
S'542.0'
p238
sa(dp239
g3
S'702.2'
p240
sg5
I0
sg6
S'804.2'
p241
sg8
S'753.8'
p242
sg10
S'707.2'
p243
sg12
S'water'
p244
sg14
S'725.4'
p245
sg16
S'728.9'
p246
sg18
S'728.9'
p247
sg20
S'733.1'
p248
sa(dp249
g3
S'751.4'
p250
sg5
I0
sg6
S'862.4'
p251
sg8
S'803.0'
p252
sg10
S'756.4'
p253
sg12
S'water'
p254
sg14
S'774.6'
p255
sg16
S'778.1'
p256
sg18
S'778.1'
p257
sg20
S'782.3'
p258
sa(dp259
g3
S'794.4'
p260
sg5
I0
sg6
S'903.4'
p261
sg8
S'846.0'
p262
sg10
S'799.4'
p263
sg12
S'water'
p264
sg14
S'817.6'
p265
sg16
S'821.1'
p266
sg18
S'821.1'
p267
sg20
S'825.3'
p268
sa(dp269
g3
S'813.3'
p270
sg5
I0
sg6
S'919.3'
p271
sg8
S'864.9'
p272
sg10
S'818.3'
p273
sg12
S'water'
p274
sg14
S'836.5'
p275
sg16
S'840.0'
p276
sg18
S'840.0'
p277
sg20
S'844.2'
p278
sa(dp279
g3
S'877.8'
p280
sg5
I0
sg6
S'977.8'
p281
sg8
S'929.4'
p282
sg10
S'882.8'
p283
sg12
S'water'
p284
sg14
S'901.0'
p285
sg16
S'904.5'
p286
sg18
S'904.5'
p287
sg20
S'908.6'
p288
sa(dp289
g3
S'898.6'
p290
sg5
I0
sg6
S'979.6'
p291
sg8
S'950.2'
p292
sg10
S'903.6'
p293
sg12
S'water'
p294
sg14
S'921.8'
p295
sg16
S'925.3'
p296
sg18
S'925.3'
p297
sg20
S'929.5'
p298
sa(dp299
g3
S'906.0'
p300
sg5
I0
sg6
S'993.0'
p301
sg8
S'957.6'
p302
sg10
S'911.0'
p303
sg12
S'water'
p304
sg14
S'929.2'
p305
sg16
S'932.7'
p306
sg18
S'932.7'
p307
sg20
S'936.9'
p308
sa(dp309
g3
S'907.4'
p310
sg5
I0
sg6
S'971.4'
p311
sg8
S'969.0'
p312
sg10
S'912.4'
p313
sg12
S'water'
p314
sg14
S'930.6'
p315
sg16
S'934.1'
p316
sg18
S'934.1'
p317
sg20
S'938.2'
p318
sa(dp319
g3
S'908.9'
p320
sg5
I0
sg6
S'999.9'
p321
sg8
S'989.8'
p322
sg10
S'913.9'
p323
sg12
S'water'
p324
sg14
S'933.0'
p325
sg16
S'940.0'
p326
sg18
S'935.6'
p327
sg20
S'948.4'
p328
sa(dp329
g3
S'909.9'
p330
sg5
I0
sg6
S'1006.9'
p331
sg8
S'997.2'
p332
sg10
S'914.9'
p333
sg12
S'water'
p334
sg14
S'940.4'
p335
sg16
S'947.4'
p336
sg18
S'939.7'
p337
sg20
S'955.8'
p338
sa(dp339
g3
S'912.2'
p340
sg5
I0
sg6
S'1010.2'
p341
sg8
S'1008.6'
p342
sg10
S'917.2'
p343
sg12
S'water'
p344
sg14
S'941.8'
p345
sg16
S'948.8'
p346
sg18
S'941.1'
p347
sg20
S'957.1'
p348
sa(dp349
g3
S'936.1'
p350
sg5
I0
sg6
S'1029.4'
p351
sg8
S'1029.4'
p352
sg10
S'941.1'
p353
sg12
S'water'
p354
sg14
S'959.3'
p355
sg16
S'962.8'
p356
sg18
S'962.8'
p357
sg20
S'967.3'
p358
sa(dp359
g3
S'953.9'
p360
sg5
I0
sg6
S'1059.8'
p361
sg8
S'1036.8'
p362
sg10
S'958.9'
p363
sg12
S'water'
p364
sg14
S'977.1'
p365
sg16
S'980.6'
p366
sg18
S'980.6'
p367
sg20
S'984.8'
p368
sa(dp369
g3
S'982.7'
p370
sg5
I0
sg6
S'1061.7'
p371
sg8
S'1048.2'
p372
sg10
S'987.7'
p373
sg12
S'water'
p374
sg14
S'1005.9'
p375
sg16
S'1009.4'
p376
sg18
S'1009.4'
p377
sg20
S'1013.6'
p378
sa(dp379
g3
S'996.0'
p380
sg5
I0
sg6
S'1106.0'
p381
sg8
S'1069.0'
p382
sg10
S'1001.0'
p383
sg12
S'water'
p384
sg14
S'1019.2'
p385
sg16
S'1022.7'
p386
sg18
S'1022.7'
p387
sg20
S'1026.9'
p388
sa(dp389
g3
S'1042.3'
p390
sg5
I0
sg6
S'1123.3'
p391
sg8
S'1093.9'
p392
sg10
S'1047.3'
p393
sg12
S'water'
p394
sg14
S'1065.5'
p395
sg16
S'1069.0'
p396
sg18
S'1069.0'
p397
sg20
S'1073.2'
p398
sa(dp399
g3
S'1071.8'
p400
sg5
I0
sg6
S'1164.8'
p401
sg8
S'1123.4'
p402
sg10
S'1076.8'
p403
sg12
S'water'
p404
sg14
S'1095.0'
p405
sg16
S'1098.5'
p406
sg18
S'1098.5'
p407
sg20
S'1102.7'
p408
sa(dp409
g3
S'1078.1'
p410
sg5
I0
sg6
S'1156.1'
p411
sg8
S'1156.1'
p412
sg10
S'1083.1'
p413
sg12
S'water'
p414
sg14
S'1114.1'
p415
sg16
S'1108.1'
p416
sg18
S'1108.1'
p417
sg20
S'1114.1'
p418
saF101.65500000000002
F31.428571428571427
I7
t.