((lp1
(dp2
S'Arrival'
p3
S'78.5'
p4
sS'Late'
p5
I0
sS'Depart'
p6
S'151.5'
p7
sS'POWER'
p8
S'130.1'
p9
sS'LANDING'
p10
S'83.5'
p11
sS'WATER'
p12
S'water'
p13
sS'BAGGAGE'
p14
S'101.7'
p15
sS'CATER'
p16
S'105.2'
p17
sS'CLEAN'
p18
S'105.2'
p19
sS'FUEL'
p20
S'109.4'
p21
sa(dp22
g3
S'140.1'
p23
sg5
I0
sg6
S'256.1'
p24
sg8
S'191.7'
p25
sg10
S'145.1'
p26
sg12
S'water'
p27
sg14
S'163.3'
p28
sg16
S'166.8'
p29
sg18
S'166.8'
p30
sg20
S'171.0'
p31
sa(dp32
g3
S'157.0'
p33
sg5
I0
sg6
S'262.0'
p34
sg8
S'208.6'
p35
sg10
S'162.0'
p36
sg12
S'water'
p37
sg14
S'180.2'
p38
sg16
S'183.7'
p39
sg18
S'183.7'
p40
sg20
S'187.9'
p41
sa(dp42
g3
S'169.7'
p43
sg5
I0
sg6
S'238.7'
p44
sg8
S'231.3'
p45
sg10
S'174.7'
p46
sg12
S'water'
p47
sg14
S'192.9'
p48
sg16
S'196.4'
p49
sg18
S'196.4'
p50
sg20
S'200.6'
p51
sa(dp52
g3
S'260.9'
p53
sg5
I0
sg6
S'375.9'
p54
sg8
S'312.5'
p55
sg10
S'265.9'
p56
sg12
S'water'
p57
sg14
S'284.1'
p58
sg16
S'287.6'
p59
sg18
S'287.6'
p60
sg20
S'291.8'
p61
sa(dp62
g3
S'271.4'
p63
sg5
I0
sg6
S'365.4'
p64
sg8
S'323.0'
p65
sg10
S'276.4'
p66
sg12
S'water'
p67
sg14
S'294.6'
p68
sg16
S'298.1'
p69
sg18
S'298.1'
p70
sg20
S'302.3'
p71
sa(dp72
g3
S'302.8'
p73
sg5
I0
sg6
S'377.8'
p74
sg8
S'354.4'
p75
sg10
S'307.8'
p76
sg12
S'water'
p77
sg14
S'326.0'
p78
sg16
S'329.5'
p79
sg18
S'329.5'
p80
sg20
S'333.7'
p81
sa(dp82
g3
S'309.0'
p83
sg5
I0
sg6
S'396.0'
p84
sg8
S'362.6'
p85
sg10
S'314.0'
p86
sg12
S'water'
p87
sg14
S'332.2'
p88
sg16
S'335.7'
p89
sg18
S'335.7'
p90
sg20
S'339.9'
p91
sa(dp92
g3
S'334.8'
p93
sg5
I0
sg6
S'404.8'
p94
sg8
S'394.0'
p95
sg10
S'339.8'
p96
sg12
S'water'
p97
sg14
S'358.0'
p98
sg16
S'361.5'
p99
sg18
S'361.5'
p100
sg20
S'365.7'
p101
sa(dp102
g3
S'393.5'
p103
sg5
I0
sg6
S'487.5'
p104
sg8
S'445.1'
p105
sg10
S'398.5'
p106
sg12
S'water'
p107
sg14
S'416.7'
p108
sg16
S'420.2'
p109
sg18
S'420.2'
p110
sg20
S'424.4'
p111
sa(dp112
g3
S'447.1'
p113
sg5
I0
sg6
S'532.1'
p114
sg8
S'498.7'
p115
sg10
S'452.1'
p116
sg12
S'water'
p117
sg14
S'470.3'
p118
sg16
S'473.8'
p119
sg18
S'473.8'
p120
sg20
S'478.0'
p121
sa(dp122
g3
S'451.0'
p123
sg5
I0
sg6
S'570.0'
p124
sg8
S'502.6'
p125
sg10
S'456.0'
p126
sg12
S'water'
p127
sg14
S'474.2'
p128
sg16
S'477.7'
p129
sg18
S'477.7'
p130
sg20
S'481.9'
p131
sa(dp132
g3
S'462.7'
p133
sg5
S'4.6'
p134
sg6
S'538.3'
p135
sg8
S'538.3'
p136
sg10
S'467.7'
p137
sg12
S'water'
p138
sg14
S'485.9'
p139
sg16
S'489.4'
p140
sg18
S'489.4'
p141
sg20
S'496.9'
p142
sa(dp143
g3
S'483.6'
p144
sg5
I0
sg6
S'572.5'
p145
sg8
S'542.2'
p146
sg10
S'488.6'
p147
sg12
S'water'
p148
sg14
S'506.8'
p149
sg16
S'510.2'
p150
sg18
S'510.2'
p151
sg20
S'514.5'
p152
sa(dp153
g3
S'526.2'
p154
sg5
I0
sg6
S'599.2'
p155
sg8
S'577.9'
p156
sg10
S'531.2'
p157
sg12
S'water'
p158
sg14
S'549.4'
p159
sg16
S'552.9'
p160
sg18
S'552.9'
p161
sg20
S'557.1'
p162
sa(dp163
g3
S'600.9'
p164
sg5
I0
sg6
S'685.9'
p165
sg8
S'652.5'
p166
sg10
S'605.9'
p167
sg12
S'water'
p168
sg14
S'624.1'
p169
sg16
S'627.6'
p170
sg18
S'627.6'
p171
sg20
S'631.8'
p172
sa(dp173
g3
S'603.8'
p174
sg5
I0
sg6
S'665.8'
p175
sg8
S'655.4'
p176
sg10
S'608.8'
p177
sg12
S'water'
p178
sg14
S'627.0'
p179
sg16
S'630.5'
p180
sg18
S'630.5'
p181
sg20
S'634.7'
p182
sa(dp183
g3
S'621.7'
p184
sg5
S'2.4'
p185
sg6
S'692.1'
p186
sg8
S'692.1'
p187
sg10
S'626.7'
p188
sg12
S'water'
p189
sg14
S'644.9'
p190
sg16
S'648.4'
p191
sg18
S'648.4'
p192
sg20
S'652.6'
p193
sa(dp194
g3
S'633.6'
p195
sg5
I0
sg6
S'731.6'
p196
sg8
S'695.0'
p197
sg10
S'638.6'
p198
sg12
S'water'
p199
sg14
S'656.9'
p200
sg16
S'660.4'
p201
sg18
S'660.4'
p202
sg20
S'664.5'
p203
sa(dp204
g3
S'637.4'
p205
sg5
I0
sg6
S'744.4'
p206
sg8
S'731.7'
p207
sg10
S'642.4'
p208
sg12
S'water'
p209
sg14
S'660.6'
p210
sg16
S'664.1'
p211
sg18
S'664.1'
p212
sg20
S'671.5'
p213
sa(dp214
g3
S'676.9'
p215
sg5
I0
sg6
S'754.9'
p216
sg8
S'734.6'
p217
sg10
S'681.9'
p218
sg12
S'water'
p219
sg14
S'700.1'
p220
sg16
S'703.6'
p221
sg18
S'703.6'
p222
sg20
S'707.8'
p223
sa(dp224
g3
S'693.6'
p225
sg5
I0
sg6
S'780.6'
p226
sg8
S'771.3'
p227
sg10
S'698.6'
p228
sg12
S'water'
p229
sg14
S'716.8'
p230
sg16
S'720.3'
p231
sg18
S'720.3'
p232
sg20
S'724.5'
p233
sa(dp234
g3
S'741.7'
p235
sg5
I0
sg6
S'846.7'
p236
sg8
S'793.3'
p237
sg10
S'746.7'
p238
sg12
S'water'
p239
sg14
S'764.9'
p240
sg16
S'768.4'
p241
sg18
S'768.4'
p242
sg20
S'772.6'
p243
sa(dp244
g3
S'747.8'
p245
sg5
S'9.1'
p246
sg6
S'876.9'
p247
sg8
S'876.9'
p248
sg10
S'752.8'
p249
sg12
S'water'
p250
sg14
S'783.8'
p251
sg16
S'777.8'
p252
sg18
S'777.8'
p253
sg20
S'783.8'
p254
sa(dp255
g3
S'752.8'
p256
sg5
S'2.7'
p257
sg6
S'872.5'
p258
sg8
S'872.5'
p259
sg10
S'757.8'
p260
sg12
S'water'
p261
sg14
S'776.1'
p262
sg16
S'783.1'
p263
sg18
S'779.5'
p264
sg20
S'810.4'
p265
sa(dp266
g3
S'758.2'
p267
sg5
I0
sg6
S'830.2'
p268
sg8
S'810.9'
p269
sg10
S'763.2'
p270
sg12
S'water'
p271
sg14
S'787.3'
p272
sg16
S'792.5'
p273
sg18
S'784.9'
p274
sg20
S'791.5'
p275
sa(dp276
g3
S'764.9'
p277
sg5
I0
sg6
S'859.9'
p278
sg8
S'832.9'
p279
sg10
S'769.9'
p280
sg12
S'water'
p281
sg14
S'795.0'
p282
sg16
S'797.8'
p283
sg18
S'791.6'
p284
sg20
S'802.7'
p285
sa(dp286
g3
S'776.5'
p287
sg5
S'32.0'
p288
sg6
S'916.5'
p289
sg8
S'916.5'
p290
sg10
S'781.5'
p291
sg12
S'water'
p292
sg14
S'799.7'
p293
sg16
S'812.5'
p294
sg18
S'803.2'
p295
sg20
S'829.3'
p296
sa(dp297
g3
S'779.6'
p298
sg5
S'29.5'
p299
sg6
S'912.1'
p300
sg8
S'912.1'
p301
sg10
S'784.6'
p302
sg12
S'water'
p303
sg14
S'806.2'
p304
sg16
S'807.2'
p305
sg18
S'806.3'
p306
sg20
S'821.6'
p307
sa(dp308
g3
S'829.8'
p309
sg5
S'36.3'
p310
sg6
S'956.1'
p311
sg8
S'956.1'
p312
sg10
S'834.8'
p313
sg12
S'water'
p314
sg14
S'853.0'
p315
sg16
S'856.5'
p316
sg18
S'856.5'
p317
sg20
S'860.7'
p318
sa(dp319
g3
S'848.6'
p320
sg5
S'34.1'
p321
sg6
S'951.7'
p322
sg8
S'951.7'
p323
sg10
S'853.6'
p324
sg12
S'water'
p325
sg14
S'871.8'
p326
sg16
S'875.3'
p327
sg18
S'875.3'
p328
sg20
S'879.5'
p329
sa(dp330
g3
S'859.4'
p331
sg5
S'21.3'
p332
sg6
S'995.7'
p333
sg8
S'995.7'
p334
sg10
S'864.4'
p335
sg12
S'water'
p336
sg14
S'882.6'
p337
sg16
S'886.1'
p338
sg18
S'886.1'
p339
sg20
S'890.3'
p340
sa(dp341
g3
S'865.4'
p342
sg5
S'132.3'
p343
sg6
S'1061.7'
p344
sg8
S'1061.7'
p345
sg10
S'870.4'
p346
sg12
S'water'
p347
sg14
S'917.4'
p348
sg16
S'899.4'
p349
sg18
S'913.4'
p350
sg20
S'914.5'
p351
sa(dp352
g3
S'889.8'
p353
sg5
S'49.5'
p354
sg6
S'1035.3'
p355
sg8
S'1035.3'
p356
sg10
S'894.8'
p357
sg12
S'water'
p358
sg14
S'913.0'
p359
sg16
S'916.5'
p360
sg18
S'916.5'
p361
sg20
S'920.7'
p362
sa(dp363
g3
S'931.2'
p364
sg5
S'51.1'
p365
sg6
S'1101.3'
p366
sg8
S'1101.3'
p367
sg10
S'936.2'
p368
sg12
S'water'
p369
sg14
S'967.2'
p370
sg16
S'961.2'
p371
sg18
S'961.2'
p372
sg20
S'967.2'
p373
sa(dp374
g3
S'961.3'
p375
sg5
S'43.0'
p376
sg6
S'1101.3'
p377
sg8
S'1101.3'
p378
sg10
S'966.3'
p379
sg12
S'water'
p380
sg14
S'984.5'
p381
sg16
S'988.0'
p382
sg18
S'988.0'
p383
sg20
S'992.2'
p384
sa(dp385
g3
S'994.1'
p386
sg5
S'38.8'
p387
sg6
S'1140.9'
p388
sg8
S'1140.9'
p389
sg10
S'999.1'
p390
sg12
S'water'
p391
sg14
S'1017.3'
p392
sg16
S'1020.8'
p393
sg18
S'1020.8'
p394
sg20
S'1025.0'
p395
sa(dp396
g3
S'997.3'
p397
sg5
S'71.2'
p398
sg6
S'1180.5'
p399
sg8
S'1180.5'
p400
sg10
S'1002.3'
p401
sg12
S'water'
p402
sg14
S'1020.5'
p403
sg16
S'1024.0'
p404
sg18
S'1024.0'
p405
sg20
S'1028.2'
p406
sa(dp407
g3
S'1000.0'
p408
sg5
S'56.9'
p409
sg6
S'1140.9'
p410
sg8
S'1140.9'
p411
sg10
S'1005.0'
p412
sg12
S'water'
p413
sg14
S'1028.5'
p414
sg16
S'1035.5'
p415
sg18
S'1027.8'
p416
sg20
S'1043.9'
p417
sa(dp418
g3
S'1048.0'
p419
sg5
S'72.5'
p420
sg6
S'1180.5'
p421
sg8
S'1180.5'
p422
sg10
S'1053.0'
p423
sg12
S'water'
p424
sg14
S'1071.2'
p425
sg16
S'1074.7'
p426
sg18
S'1074.7'
p427
sg20
S'1078.9'
p428
saF40.42941176470589
F108.53000000000002
I17
t.